(dp0
S'con_4e6112fc0a8c4'
p1
S'CAO_01706'
p2
sS'cnt_4e03bc67764f5'
p3
S'CAO_01647'
p4
sS'trm_4a3fd79d0b779'
p5
S'CAO_00616'
p6
sS'trm_4a3fd79d09a55'
p7
S'CAO_00156'
p8
sS'cnt_4b8436c051c94'
p9
S'CAO_01232'
p10
sS'trm_4d7fc763cf777'
p11
S'CAO_00688'
p12
sS'cnt_4de93ddadf379'
p13
S'CAO_01344'
p14
sS'trm_4a3fd79d09ece'
p15
S'CAO_00233'
p16
sS'trm_4c8a830dec136'
p17
S'CAO_00772'
p18
sS'trm_4f241001dfcee'
p19
S'CAO_01614'
p20
sS'trm_4a3fd79d0a15c'
p21
S'CAO_00273'
p22
sS'cnt_4df2a4de25215'
p23
S'CAO_01422'
p24
sS'trm_4a3fd79d0a775'
p25
S'CAO_00373'
p26
sS'trm_4c8991c5beb0a'
p27
S'CAO_00763'
p28
sS'con_4ebd45fd32ef6'
p29
S'CAO_01748'
p30
sS'trm_4cacf22a22d80'
p31
S'CAO_00793'
p32
sS'trm_4a3fd79d0a80f'
p33
S'CAO_00384'
p34
sS'con_4dffcea98fb12'
p35
S'CAO_01119'
p36
sS'trm_4c8a834779883'
p37
S'CAO_00774'
p38
sS'trm_4f2421a62cdf8'
p39
S'CAO_01651'
p40
sS'cnt_4dffcba5c2efd'
p41
S'CAO_01535'
p42
sS'trm_4a3fd79d0b607'
p43
S'CAO_00594'
p44
sS'trm_4a3fd79d0a151'
p45
S'CAO_00272'
p46
sS'con_4decff04d5ada'
p47
S'CAO_01081'
p48
sS'trm_4a3fd79d0afda'
p49
S'CAO_00495'
p50
sS'trm_4a3fd79d0a0e7'
p51
S'CAO_00265'
p52
sS'trm_4c8a8497df574'
p53
S'CAO_00783'
p54
sS'trm_4a3fd79d0a803'
p55
S'CAO_00383'
p56
sS'trm_4a3fd79d0a556'
p57
S'CAO_00340'
p58
sS'con_4b4a53b3e6eb5'
p59
S'CAO_00983'
p60
sS'cnt_4de91cc952b43'
p61
S'CAO_01337'
p62
sS'con_4dfa7237ebfdd'
p63
S'CAO_01106'
p64
sS'trm_4f2453b806fe1'
p65
S'CAO_01682'
p66
sS'tsk_4a57abb949aca'
p67
S'CAO_00831'
p68
sS'trm_4a3fd79d0b9c5'
p69
S'CAO_00654'
p70
sS'con_4de6c9842d9c2'
p71
S'CAO_01059'
p72
sS'cnt_4df260fd670ea'
p73
S'CAO_01400'
p74
sS'cnt_4e61222e46c9c'
p75
S'CAO_01804'
p76
sS'con_4ebd47cf0dfed'
p77
S'CAO_01751'
p78
sS'trm_4a3fd79d0aeb6'
p79
S'CAO_00479'
p80
sS'cnt_4e0237aa75286'
p81
S'CAO_01608'
p82
sS'cnt_4df8e24a62cc8'
p83
S'CAO_01445'
p84
sS'trm_4da88ec6735ad'
p85
S'CAO_00952'
p86
sS'trm_4c8990c87035d'
p87
S'CAO_00757'
p88
sS'trm_4c89924414c69'
p89
S'CAO_00768'
p90
sS'con_4ebc98faf2729'
p91
S'CAO_01728'
p92
sS'con_4de7e54b3b6d2'
p93
S'CAO_01071'
p94
sS'trm_4a3fd79d0b6e9'
p95
S'CAO_00611'
p96
sS'con_4ebd697931d91'
p97
S'CAO_01777'
p98
sS'trm_4f242042e5805'
p99
S'CAO_01647'
p100
sS'trm_4a3fd79d0b3cb'
p101
S'CAO_00558'
p102
sS'cnt_4de6ad74bd885'
p103
S'CAO_01292'
p104
sS'cnt_4dfbaef575808'
p105
S'CAO_01510'
p106
sS'con_4ebd527776c01'
p107
S'CAO_01761'
p108
sS'cnt_4be6ec0d002ee'
p109
S'CAO_01239'
p110
sS'con_4edcf39c3717e'
p111
S'CAO_01788'
p112
sS'con_4de6add394f5b'
p113
S'CAO_01047'
p114
sS'cnt_4e00fd62beac3'
p115
S'CAO_01558'
p116
sS'cnt_4de68ca153c38'
p117
S'CAO_01286'
p118
sS'trm_4e31d45546675'
p119
S'CAO_00698'
p120
sS'con_4de6d066cb774'
p121
S'CAO_01061'
p122
sS'cnt_4b196a314e3c4'
p123
S'CAO_01200'
p124
sS'con_4e0126dc12ff6'
p125
S'CAO_01146'
p126
sS'tsk_4a57abb949b2b'
p127
S'CAO_00838'
p128
sS'trm_4a3fd79d0981b'
p129
S'CAO_00125'
p130
sS'cnt_4e01263d51c93'
p131
S'CAO_01577'
p132
sS'trm_4b843655d5d75'
p133
S'CAO_00713'
p134
sS'cnt_4de6ae3e231dd'
p135
S'CAO_01294'
p136
sS'con_4ebd5a24bee02'
p137
S'CAO_01767'
p138
sS'cnt_4ebcaa755a7e5'
p139
S'CAO_01823'
p140
sS'cnt_4de6c945846f2'
p141
S'CAO_01308'
p142
sS'trm_4da86cdbd9eeb'
p143
S'CAO_00922'
p144
sS'cnt_4df8e29765d7b'
p145
S'CAO_01447'
p146
sS'con_4b7c041db7971'
p147
S'CAO_00993'
p148
sS'trm_4a3fd79d0972a'
p149
S'CAO_00108'
p150
sS'cnt_4de7dc695fabb'
p151
S'CAO_01329'
p152
sS'con_4de55b77a975e'
p153
S'CAO_01024'
p154
sS'trm_4a3fd79d09dc1'
p155
S'CAO_00213'
p156
sS'trm_4a3fd79d0b8fc'
p157
S'CAO_00637'
p158
sS'cnt_4e0127abddfeb'
p159
S'CAO_01585'
p160
sS'con_4e012702f073f'
p161
S'CAO_01147'
p162
sS'trm_4d7fa2df05f23'
p163
S'CAO_00687'
p164
sS'trm_4f2449bdcb0b1'
p165
S'CAO_01668'
p166
sS'con_4e012e64945d9'
p167
S'CAO_01152'
p168
sS'trm_4a3fd79d09e58'
p169
S'CAO_00224'
p170
sS'trm_4a3fd79d09810'
p171
S'CAO_00124'
p172
sS'trm_4a3fd79d0ba77'
p173
S'CAO_00669'
p174
sS'trm_4a3fd79d0b0eb'
p175
S'CAO_00516'
p176
sS'trm_4c8a82eeaa58f'
p177
S'CAO_00771'
p178
sS'trm_4a3fd79d0a4c9'
p179
S'CAO_00330'
p180
sS'cnt_4b7c04350ce30'
p181
S'CAO_01221'
p182
sS'con_4ebd529e6b0db'
p183
S'CAO_01762'
p184
sS'trm_4a3fd79d09dcd'
p185
S'CAO_00214'
p186
sS'con_4dfa889b33ab5'
p187
S'CAO_01107'
p188
sS'trm_4a3fd79d09925'
p189
S'CAO_00147'
p190
sS'trm_4b75ea4ddd896'
p191
S'CAO_00712'
p192
sS'trm_4a3fd79d0adab'
p193
S'CAO_00462'
p194
sS'trm_4a3fd79d096f0'
p195
S'CAO_00103'
p196
sS'trm_4dfa343f8a815'
p197
S'CAO_00692'
p198
sS'trm_4e5662373bc89'
p199
S'CAO_00970'
p200
sS'cnt_4dfbb1aa371fc'
p201
S'CAO_01514'
p202
sS'trm_4a3fd79d09ca3'
p203
S'CAO_00200'
p204
sS'tsk_4a57abb949e5b'
p205
S'CAO_00875'
p206
sS'trm_4dadbfd771a54'
p207
S'CAO_00966'
p208
sS'trm_4a3fd79d0b943'
p209
S'CAO_00643'
p210
sS'trm_4da630c52c011'
p211
S'CAO_00903'
p212
sS'trm_4a3fd79d096fc'
p213
S'CAO_00104'
p214
sS'cnt_4de53a9746a40'
p215
S'CAO_01259'
p216
sS'trm_4c3e05903e4bb'
p217
S'CAO_00681'
p218
sS'cnt_4e0243468cb6f'
p219
S'CAO_01613'
p220
sS'trm_4a3fd79d0b386'
p221
S'CAO_00555'
p222
sS'trm_4a3fd79d0b94f'
p223
S'CAO_00644'
p224
sS'trm_4a3fd79d0a398'
p225
S'CAO_00310'
p226
sS'trm_4c8a8467304e2'
p227
S'CAO_00781'
p228
sS'trm_4a3fd79d0a3a4'
p229
S'CAO_00311'
p230
sS'trm_4a3fd79d09cae'
p231
S'CAO_00201'
p232
sS'cnt_4e08ed9422f36'
p233
S'CAO_01651'
p234
sS'con_4e010aebbbc24'
p235
S'CAO_01132'
p236
sS'trm_4a3fd79d0afcf'
p237
S'CAO_00494'
p238
sS'trm_4a3fd79d0a78d'
p239
S'CAO_00375'
p240
sS'trm_4a3fd79d0b160'
p241
S'CAO_00525'
p242
sS'trm_4a3fd79d0b76e'
p243
S'CAO_00615'
p244
sS'con_4ebd6de3528c0'
p245
S'CAO_01782'
p246
sS'trm_4da6304c9aa23'
p247
S'CAO_00902'
p248
sS'trm_4a3fd79d0a49a'
p249
S'CAO_00326'
p250
sS'con_4e6a45b172df5'
p251
S'CAO_01720'
p252
sS'trm_4a3fd79d0a943'
p253
S'CAO_00402'
p254
sS'cnt_4e08f563a47ed'
p255
S'CAO_01655'
p256
sS'trm_4a3fd79d0b548'
p257
S'CAO_00579'
p258
sS'cnt_4e038ad0147d7'
p259
S'CAO_01634'
p260
sS'con_4de6d0d578e8e'
p261
S'CAO_01062'
p262
sS'trm_4e68e08950157'
p263
S'CAO_01591'
p264
sS'trm_4a3fd79d0a70b'
p265
S'CAO_00367'
p266
sS'con_4e6a345e36b25'
p267
S'CAO_01717'
p268
sS'cnt_4b65e62c5351c'
p269
S'CAO_01217'
p270
sS'cnt_4df663cf4ea8a'
p271
S'CAO_01423'
p272
sS'trm_4a3fd79d0afc3'
p273
S'CAO_00493'
p274
sS'trm_4a3fd79d0b16c'
p275
S'CAO_00526'
p276
sS'cnt_4e6a45ef2fdb1'
p277
S'CAO_01812'
p278
sS'cnt_4e5bbed9bd8ae'
p279
S'CAO_01672'
p280
sS'trm_4a3fd79d0aad4'
p281
S'CAO_00431'
p282
sS'cnt_4e5fcff423ea1'
p283
S'CAO_01801'
p284
sS'cnt_4dfb9a322c52f'
p285
S'CAO_01501'
p286
sS'cnt_4de7dcca346d1'
p287
S'CAO_01330'
p288
sS'cnt_4e010b32b9f74'
p289
S'CAO_01565'
p290
sS'trm_4a3fd79d0a700'
p291
S'CAO_00366'
p292
sS'con_4de91cc95248e'
p293
S'CAO_01072'
p294
sS'trm_4c8a82ba8a538'
p295
S'CAO_00770'
p296
sS'con_4e08f563a4600'
p297
S'CAO_01171'
p298
sS'trm_4a3fd79d0a94f'
p299
S'CAO_00403'
p300
sS'cnt_4decfedb91973'
p301
S'CAO_01353'
p302
sS'trm_4a3fd79d0b613'
p303
S'CAO_00595'
p304
sS'con_4df8e2760dd20'
p305
S'CAO_01099'
p306
sS'trm_4a3fd79d0aecd'
p307
S'CAO_00481'
p308
sS'con_4df11413051f5'
p309
S'CAO_01088'
p310
sS'con_4dfbb1aa36fb5'
p311
S'CAO_01116'
p312
sS'trm_4a3fd79d0a23b'
p313
S'CAO_00290'
p314
sS'cnt_4df2a4cb64388'
p315
S'CAO_01420'
p316
sS'trm_4f24492504ca0'
p317
S'CAO_01666'
p318
sS'cnt_4dfa6be222aa7'
p319
S'CAO_01483'
p320
sS'cnt_4ded3a95a6098'
p321
S'CAO_01364'
p322
sS'trm_4a3fd79d0a833'
p323
S'CAO_00387'
p324
sS'trm_4e6112759926e'
p325
S'CAO_01588'
p326
sS'trm_4a3fd79d0b9b9'
p327
S'CAO_00653'
p328
sS'tsk_4a57abb9499a8'
p329
S'CAO_00811'
p330
sS'trm_4a3fd79d0a8fc'
p331
S'CAO_00396'
p332
sS'cnt_4df9397fa59bd'
p333
S'CAO_01467'
p334
sS'trm_4a3fd79d09b33'
p335
S'CAO_00175'
p336
sS'cnt_4deff762a9fb7'
p337
S'CAO_01382'
p338
sS'trm_4da88b63787d6'
p339
S'CAO_00943'
p340
sS'trm_4a3fd79d0a5ed'
p341
S'CAO_00346'
p342
sS'trm_4a3fd79d0a0dc'
p343
S'CAO_00264'
p344
sS'trm_4a3fd79d0b6f5'
p345
S'CAO_00612'
p346
sS'trm_4a3fd79d0aec1'
p347
S'CAO_00480'
p348
sS'trm_4a3fd79d0b61f'
p349
S'CAO_00596'
p350
sS'con_4e6a2fa945aff'
p351
S'CAO_01716'
p352
sS'trm_4a3fd79d0a12d'
p353
S'CAO_00270'
p354
sS'cnt_4dfa3e4d70781'
p355
S'CAO_01471'
p356
sS'con_4dfb9a322be5a'
p357
S'CAO_01109'
p358
sS'cnt_4de6c02033259'
p359
S'CAO_01301'
p360
sS'cnt_4d949c8f3101c'
p361
S'CAO_01260'
p362
sS'cnt_4e02302350f17'
p363
S'CAO_01603'
p364
sS'trm_4a3fd79d0a83f'
p365
S'CAO_00388'
p366
sS'cnt_4de6a334313b1'
p367
S'CAO_01291'
p368
sS'trm_4b4a537644d76'
p369
S'CAO_00708'
p370
sS'trm_4ebc728326a13'
p371
S'CAO_01599'
p372
sS'trm_4a3fd79d09bf9'
p373
S'CAO_00187'
p374
sS'cnt_4dfa704eaedf9'
p375
S'CAO_01484'
p376
sS'cnt_4de6d30243eb5'
p377
S'CAO_01316'
p378
sS'cnt_4b4a2f46e2faa'
p379
S'CAO_01205'
p380
sS'cnt_4de7c5b19456f'
p381
S'CAO_01320'
p382
sS'trm_4b9568b2865c2'
p383
S'CAO_00720'
p384
sS'cnt_4dfa3f0edd3d4'
p385
S'CAO_01474'
p386
sS'trm_4da891d43240c'
p387
S'CAO_00963'
p388
sS'cnt_4b4a54dd8d597'
p389
S'CAO_01212'
p390
sS'trm_4e31d3ba7d25b'
p391
S'CAO_00697'
p392
sS'trm_4f241c8d4a75c'
p393
S'CAO_01640'
p394
sS'cnt_4dfa90c46cf46'
p395
S'CAO_01498'
p396
sS'con_4dffd181cb5ac'
p397
S'CAO_01125'
p398
sS'cnt_4df689e663ffe'
p399
S'CAO_01432'
p400
sS'cnt_4e0129ab22608'
p401
S'CAO_01586'
p402
sS'trm_4f242499b8952'
p403
S'CAO_01657'
p404
sS'cnt_4dfa838286e12'
p405
S'CAO_01491'
p406
sS'con_4b4a5481d9f61'
p407
S'CAO_00985'
p408
sS'trm_4f241b751c5a0'
p409
S'CAO_01635'
p410
sS'cnt_4e010aebbc19d'
p411
S'CAO_01563'
p412
sS'con_4d949c8528903'
p413
S'CAO_01020'
p414
sS'cnt_4be6ebc7c0886'
p415
S'CAO_01238'
p416
sS'cnt_4de919cf2b2bd'
p417
S'CAO_01336'
p418
sS'cnt_4df265ff04368'
p419
S'CAO_01404'
p420
sS'trm_4a3fd79d09db6'
p421
S'CAO_00212'
p422
sS'cnt_4de6758abdfa5'
p423
S'CAO_01280'
p424
sS'trm_4c8990b07a037'
p425
S'CAO_00756'
p426
sS'cnt_4e012722eeb57'
p427
S'CAO_01583'
p428
sS'con_4df8e24a62aa3'
p429
S'CAO_01098'
p430
sS'con_4b1969ffa6857'
p431
S'CAO_00974'
p432
sS'cnt_4df25f35f17e3'
p433
S'CAO_01398'
p434
sS'trm_4c898ff0bea97'
p435
S'CAO_00750'
p436
sS'trm_4b82c75498408'
p437
S'CAO_00679'
p438
sS'con_4dfba8b045f20'
p439
S'CAO_01114'
p440
sS'trm_4da8914987ee2'
p441
S'CAO_00960'
p442
sS'tsk_4a57abb949a41'
p443
S'CAO_00821'
p444
sS'trm_4da87fb28978e'
p445
S'CAO_00930'
p446
sS'cnt_4e038e680bd57'
p447
S'CAO_01637'
p448
sS'tsk_4a57abb949df1'
p449
S'CAO_00868'
p450
sS'tsk_4a57abb949d9f'
p451
S'CAO_00862'
p452
sS'trm_4a3fd79d09804'
p453
S'CAO_00123'
p454
sS'cnt_4e011cb5c3e85'
p455
S'CAO_01574'
p456
sS'trm_4a3fd79d0ba60'
p457
S'CAO_00667'
p458
sS'trm_4a3fd79d0b97e'
p459
S'CAO_00648'
p460
sS'trm_4a3fd79d09735'
p461
S'CAO_00109'
p462
sS'cnt_4e03bc8177610'
p463
S'CAO_01648'
p464
sS'trm_4a3fd79d0a4b2'
p465
S'CAO_00328'
p466
sS'cnt_4ded050f2e7f1'
p467
S'CAO_01356'
p468
sS'cnt_4e00ffaa486fa'
p469
S'CAO_01559'
p470
sS'trm_4da88ae0f2952'
p471
S'CAO_00940'
p472
sS'cnt_4cacf41109351'
p473
S'CAO_01255'
p474
sS'tsk_4a57abb949869'
p475
S'CAO_00798'
p476
sS'cnt_4ded4dc5b5118'
p477
S'CAO_01369'
p478
sS'cnt_4dfa523d45d5b'
p479
S'CAO_01479'
p480
sS'tsk_4a57abb949d92'
p481
S'CAO_00861'
p482
sS'trm_4a3fd79d09930'
p483
S'CAO_00148'
p484
sS'trm_4a3fd79d096e3'
p485
S'CAO_00102'
p486
sS'tsk_4a57abb949dfe'
p487
S'CAO_00869'
p488
sS'tsk_4a57abb949a4f'
p489
S'CAO_00822'
p490
sS'trm_4a3fd79d0a4be'
p491
S'CAO_00329'
p492
sS'trm_4da87e9c79847'
p493
S'CAO_00927'
p494
sS'con_4ebd5208da2ca'
p495
S'CAO_01759'
p496
sS'trm_4a3fd79d0ae87'
p497
S'CAO_00477'
p498
sS'trm_4a3fd79d0ba6c'
p499
S'CAO_00668'
p500
sS'trm_4a3fd79d0b972'
p501
S'CAO_00647'
p502
sS'trm_4a3fd79d0b406'
p503
S'CAO_00561'
p504
sS'con_4e5e7c35246cc'
p505
S'CAO_01698'
p506
sS'trm_4a3fd79d0b11a'
p507
S'CAO_00519'
p508
sS'cnt_4e5d087f98fb2'
p509
S'CAO_01673'
p510
sS'con_4de6c8bbe652f'
p511
S'CAO_01057'
p512
sS'cnt_4de7d0b31ce2e'
p513
S'CAO_01325'
p514
sS'trm_4a3fd79d0b8aa'
p515
S'CAO_00630'
p516
sS'trm_4a3fd79d0aa00'
p517
S'CAO_00416'
p518
sS'cnt_4e6a2fce43903'
p519
S'CAO_01810'
p520
sS'trm_4a3fd79d0ad58'
p521
S'CAO_00458'
p522
sS'con_4e31e4ff71bc3'
p523
S'CAO_01173'
p524
sS'trm_4a3fd79d09e87'
p525
S'CAO_00228'
p526
sS'con_4df11498b173f'
p527
S'CAO_01090'
p528
sS'con_4e0126b9ec375'
p529
S'CAO_01145'
p530
sS'trm_4a3fd79d0b285'
p531
S'CAO_00540'
p532
sS'cnt_4e011afe30540'
p533
S'CAO_01572'
p534
sS'trm_4dadbdd0b2b8c'
p535
S'CAO_00964'
p536
sS'trm_4a3fd79d0b578'
p537
S'CAO_00583'
p538
sS'cnt_4e552738a229c'
p539
S'CAO_01671'
p540
sS'trm_4d21e9a7dd8ca'
p541
S'CAO_00683'
p542
sS'con_4ebd46789f909'
p543
S'CAO_01749'
p544
sS'cnt_4de93e2a13bb5'
p545
S'CAO_01345'
p546
sS'trm_4a3fd79d0aa0c'
p547
S'CAO_00417'
p548
sS'trm_4f240d346320c'
p549
S'CAO_01608'
p550
sS'trm_4b86dbcd8ff78'
p551
S'CAO_00717'
p552
sS'con_4e6a2f906c4ec'
p553
S'CAO_01715'
p554
sS'con_4e4969c33c594'
p555
S'CAO_01185'
p556
sS'con_4b44a4d54233a'
p557
S'CAO_00976'
p558
sS'trm_4a3fd79d0b020'
p559
S'CAO_00500'
p560
sS'trm_4a3fd79d0b756'
p561
S'CAO_00614'
p562
sS'con_4e011a8762bf1'
p563
S'CAO_01136'
p564
sS'trm_4a3fd79d0a006'
p565
S'CAO_00250'
p566
sS'con_4e49694dc6d46'
p567
S'CAO_01182'
p568
sS'trm_4da89077f19ae'
p569
S'CAO_00954'
p570
sS'trm_4b45f467bf238'
p571
S'CAO_00672'
p572
sS'trm_4a3fd79d0a483'
p573
S'CAO_00324'
p574
sS'cnt_4dffdf0929a7b'
p575
S'CAO_01554'
p576
sS'cnt_4e037a9a47d41'
p577
S'CAO_01631'
p578
sS'trm_4a3fd79d0b02c'
p579
S'CAO_00501'
p580
sS'cnt_4dfa709c313b1'
p581
S'CAO_01485'
p582
sS'trm_4da86cfe8cf1b'
p583
S'CAO_00923'
p584
sS'trm_4e89aebaa311d'
p585
S'CAO_01576'
p586
sS'tsk_4a57abb9499b8'
p587
S'CAO_00812'
p588
sS'con_4e023c2ae3a10'
p589
S'CAO_01162'
p590
sS'trm_4a3fd79d09a3d'
p591
S'CAO_00154'
p592
sS'trm_4a3fd79d0b59b'
p593
S'CAO_00586'
p594
sS'cnt_4e027155c037c'
p595
S'CAO_01630'
p596
sS'con_4de6bfdf58e8e'
p597
S'CAO_01051'
p598
sS'trm_4a3fd79d0a48e'
p599
S'CAO_00325'
p600
sS'cnt_4ded2ba5e3681'
p601
S'CAO_01362'
p602
sS'con_4e027155c0175'
p603
S'CAO_01164'
p604
sS'trm_4a3fd79d0a827'
p605
S'CAO_00386'
p606
sS'trm_4a3fd79d09b28'
p607
S'CAO_00174'
p608
sS'cnt_4df6a3169f42a'
p609
S'CAO_01440'
p610
sS'trm_4a3fd79d0a223'
p611
S'CAO_00288'
p612
sS'trm_4a3fd79d09a00'
p613
S'CAO_00152'
p614
sS'trm_4a3fd79d09e9e'
p615
S'CAO_00230'
p616
sS'cnt_4de7e54b3b8d8'
p617
S'CAO_01334'
p618
sS'con_4dffcee92f1ed'
p619
S'CAO_01120'
p620
sS'con_4e551ea3799e5'
p621
S'CAO_01190'
p622
sS'cnt_4dfa71f0c9d32'
p623
S'CAO_01486'
p624
sS'con_4e08f54b8a1f9'
p625
S'CAO_01170'
p626
sS'trm_4ebc9d2e397f2'
p627
S'CAO_01601'
p628
sS'tsk_4a57abb949be9'
p629
S'CAO_00846'
p630
sS'trm_4a3fd79d09be2'
p631
S'CAO_00185'
p632
sS'cnt_4e025470a7e77'
p633
S'CAO_01618'
p634
sS'con_4ebd5d114a4ec'
p635
S'CAO_01775'
p636
sS'tsk_4a57abb949ea5'
p637
S'CAO_00879'
p638
sS'cnt_4de95f0aa8476'
p639
S'CAO_01349'
p640
sS'trm_4f24154867d84'
p641
S'CAO_01625'
p642
sS'trm_4a3fd79d0a22f'
p643
S'CAO_00289'
p644
sS'cnt_4df8ef7a8d7c3'
p645
S'CAO_01452'
p646
sS'trm_4a3fd79d0ab9f'
p647
S'CAO_00440'
p648
sS'cnt_4e023b95e5100'
p649
S'CAO_01610'
p650
sS'cnt_4e013090c4cf1'
p651
S'CAO_01594'
p652
sS'con_4b4a2f46e10c3'
p653
S'CAO_00979'
p654
sS'con_4de6a2be90318'
p655
S'CAO_01043'
p656
sS'trm_4f3bdeedcc99d'
p657
S'CAO_01582'
p658
sS'trm_4a3fd79d09bee'
p659
S'CAO_00186'
p660
sS'trm_4a3fd79d09eaa'
p661
S'CAO_00231'
p662
sS'cnt_4de55b77a9984'
p663
S'CAO_01263'
p664
sS'trm_4a3fd79d0983e'
p665
S'CAO_00128'
p666
sS'cnt_4e08f52d8255d'
p667
S'CAO_01653'
p668
sS'cnt_4e0244a565d7c'
p669
S'CAO_01614'
p670
sS'trm_4c3e0a9576c3b'
p671
S'CAO_00721'
p672
sS'tsk_4a57abb949a5d'
p673
S'CAO_00823'
p674
sS'trm_4f244ad7dcde7'
p675
S'CAO_01672'
p676
sS'trm_4da88b8b60ffb'
p677
S'CAO_00944'
p678
sS'cnt_4dfa6ad39f546'
p679
S'CAO_01480'
p680
sS'con_4b4a5490ef92f'
p681
S'CAO_00986'
p682
sS'cnt_4c9970e9759d2'
p683
S'CAO_01247'
p684
sS'con_4ebd44252ef5e'
p685
S'CAO_01744'
p686
sS'trm_4a3fd79d0b9ad'
p687
S'CAO_00652'
p688
sS'cnt_4dfa3ebab2930'
p689
S'CAO_01472'
p690
sS'tsk_4a57abb949de3'
p691
S'CAO_00867'
p692
sS'trm_4a3fd79d09833'
p693
S'CAO_00127'
p694
sS'trm_4f2414059baa8'
p695
S'CAO_01623'
p696
sS'trm_4a3fd79d0ba19'
p697
S'CAO_00661'
p698
sS'trm_4f240fbdf1601'
p699
S'CAO_01613'
p700
sS'trm_4f241173868a3'
p701
S'CAO_01617'
p702
sS'cnt_4dff9a6e99c08'
p703
S'CAO_01529'
p704
sS'cnt_4df66a5dec65d'
p705
S'CAO_01427'
p706
sS'trm_4a3fd79d0b967'
p707
S'CAO_00646'
p708
sS'trm_4f241ab50513b'
p709
S'CAO_01633'
p710
sS'con_4ebd5aadbbcc9'
p711
S'CAO_01768'
p712
sS'trm_4a3fd79d09902'
p713
S'CAO_00144'
p714
sS'con_4ebd419090a49'
p715
S'CAO_01737'
p716
sS'cnt_4e02539674407'
p717
S'CAO_01616'
p718
sS'tsk_4a57abb949d84'
p719
S'CAO_00860'
p720
sS'tsk_4a57abb949e7c'
p721
S'CAO_00876'
p722
sS'cnt_4cacf26718047'
p723
S'CAO_01254'
p724
sS'cnt_4e5fcfc70842b'
p725
S'CAO_01799'
p726
sS'trm_4a3fd79d098f7'
p727
S'CAO_00143'
p728
sS'trm_4da88c205b16b'
p729
S'CAO_00948'
p730
sS'cnt_4df26493887a0'
p731
S'CAO_01403'
p732
sS'trm_4c8a843d8d352'
p733
S'CAO_00780'
p734
sS'trm_4a3fd79d09a78'
p735
S'CAO_00159'
p736
sS'trm_4f2420b042165'
p737
S'CAO_01648'
p738
sS'cnt_4dffaa78530b6'
p739
S'CAO_01530'
p740
sS'trm_4a3fd79d0ad4c'
p741
S'CAO_00457'
p742
sS'con_4c9975fc2e715'
p743
S'CAO_01012'
p744
sS'trm_4a3fd79d0990e'
p745
S'CAO_00145'
p746
sS'cnt_4df69c712873f'
p747
S'CAO_01438'
p748
sS'trm_4da6318f7381b'
p749
S'CAO_00905'
p750
sS'con_4b7c044e53f9e'
p751
S'CAO_00995'
p752
sS'con_4e08f52d8230f'
p753
S'CAO_01169'
p754
sS'trm_4a3fd79d0b363'
p755
S'CAO_00553'
p756
sS'trm_4da633fe917c4'
p757
S'CAO_00912'
p758
sS'cnt_4de929f98367a'
p759
S'CAO_01340'
p760
sS'cnt_4cacf4680bbcd'
p761
S'CAO_01257'
p762
sS'trm_4a3fd79d0ad41'
p763
S'CAO_00456'
p764
sS'cnt_4ebcaa52e7dbd'
p765
S'CAO_01822'
p766
sS'cnt_4de56f49c2858'
p767
S'CAO_01264'
p768
sS'cnt_4de6c00e51eda'
p769
S'CAO_01300'
p770
sS'cnt_4e0253808fe82'
p771
S'CAO_01615'
p772
sS'trm_4a3fd79d09e93'
p773
S'CAO_00229'
p774
sS'cnt_4df66400663ec'
p775
S'CAO_01424'
p776
sS'con_4e08f5a26750f'
p777
S'CAO_01172'
p778
sS'con_4e551f0136d17'
p779
S'CAO_01191'
p780
sS'trm_4f2452adb7d23'
p781
S'CAO_01680'
p782
sS'cnt_4dfa4752a1120'
p783
S'CAO_01478'
p784
sS'cnt_4de6b69d1e765'
p785
S'CAO_01296'
p786
sS'trm_4a3fd79d0b290'
p787
S'CAO_00541'
p788
sS'trm_4ebd477ab5a11'
p789
S'CAO_01603'
p790
sS'con_4b4a51b665917'
p791
S'CAO_00980'
p792
sS'trm_4a3fd79d0b58f'
p793
S'CAO_00585'
p794
sS'trm_4a3fd79d0afab'
p795
S'CAO_00492'
p796
sS'trm_4a3fd79d0b2fa'
p797
S'CAO_00547'
p798
sS'trm_4a3fd79d0adc3'
p799
S'CAO_00464'
p800
sS'trm_4a3fd79d0b1e0'
p801
S'CAO_00534'
p802
sS'cnt_4df2918824fb9'
p803
S'CAO_01409'
p804
sS'cnt_4cacee8ad4b14'
p805
S'CAO_01252'
p806
sS'cnt_4dff7fcf1b8a2'
p807
S'CAO_01521'
p808
sS'trm_4a3fd79d0a920'
p809
S'CAO_00399'
p810
sS'cnt_4b196a106e854'
p811
S'CAO_01198'
p812
sS'trm_4f241b50caaf7'
p813
S'CAO_01634'
p814
sS'trm_4a3fd79d0a72e'
p815
S'CAO_00369'
p816
sS'trm_4a3fd79d0b583'
p817
S'CAO_00584'
p818
sS'cnt_4dffded7a9be2'
p819
S'CAO_01553'
p820
sS'tsk_4a57abb94981d'
p821
S'CAO_00795'
p822
sS'trm_4a3fd79d0b10e'
p823
S'CAO_00518'
p824
sS'trm_4e6127bd91be9'
p825
S'CAO_01575'
p826
sS'trm_4a3fd79d0b037'
p827
S'CAO_00502'
p828
sS'trm_4a3fd79d0a038'
p829
S'CAO_00253'
p830
sS'cnt_4e0112e7d3bca'
p831
S'CAO_01566'
p832
sS'trm_4f24237f2ed47'
p833
S'CAO_01654'
p834
sS'trm_4a3fd79d0b29c'
p835
S'CAO_00542'
p836
sS'cnt_4e011aded6b9e'
p837
S'CAO_01571'
p838
sS'trm_4a3fd79d0a92b'
p839
S'CAO_00400'
p840
sS'trm_4a3fd79d0a723'
p841
S'CAO_00368'
p842
sS'trm_4b65e5e2ab3ca'
p843
S'CAO_00709'
p844
sS'trm_4a3fd79d0adcf'
p845
S'CAO_00465'
p846
sS'trm_4a3fd79d0b56b'
p847
S'CAO_00582'
p848
sS'tsk_4a57abb9499c7'
p849
S'CAO_00813'
p850
sS'con_4dffd2bac7de2'
p851
S'CAO_01129'
p852
sS'trm_4da6327154fd4'
p853
S'CAO_00907'
p854
sS'trm_4a3fd79d0aeaa'
p855
S'CAO_00478'
p856
sS'trm_4a3fd79d0a6f4'
p857
S'CAO_00365'
p858
sS'trm_4a3fd79d097d6'
p859
S'CAO_00119'
p860
sS'trm_4b7c270940f9d'
p861
S'CAO_00677'
p862
sS'trm_4f240d7664628'
p863
S'CAO_01609'
p864
sS'trm_4a3fd79d0a0f3'
p865
S'CAO_00266'
p866
sS'tsk_4a57abb949bdb'
p867
S'CAO_00845'
p868
sS'trm_4a3fd79d0a585'
p869
S'CAO_00344'
p870
sS'cnt_4dff8030b7e41'
p871
S'CAO_01523'
p872
sS'trm_4a3fd79d09efb'
p873
S'CAO_00237'
p874
sS'trm_4a3fd79d09b10'
p875
S'CAO_00172'
p876
sS'trm_4a3fd79d0a477'
p877
S'CAO_00323'
p878
sS'con_4df26137bc517'
p879
S'CAO_01093'
p880
sS'trm_4a3fd79d0a0ff'
p881
S'CAO_00267'
p882
sS'trm_4a3fd79d0a218'
p883
S'CAO_00287'
p884
sS'cnt_4ebca72d737c1'
p885
S'CAO_01818'
p886
sS'con_4de5785aaa9dd'
p887
S'CAO_01027'
p888
sS'trm_4b86c2e871b14'
p889
S'CAO_00714'
p890
sS'cnt_4df1456d05cab'
p891
S'CAO_01395'
p892
sS'cnt_4e011b28cebdc'
p893
S'CAO_01573'
p894
sS'cnt_4dfa7d117d48f'
p895
S'CAO_01488'
p896
sS'trm_4a3fd79d09ef0'
p897
S'CAO_00236'
p898
sS'trm_4a3fd79d09b1c'
p899
S'CAO_00173'
p900
sS'trm_4e8dd3dfd9fff'
p901
S'CAO_01596'
p902
sS'con_4e0112e7d3937'
p903
S'CAO_01134'
p904
sS'cnt_4e03b8c2457b4'
p905
S'CAO_01646'
p906
sS'trm_4a3fd79d0b4d8'
p907
S'CAO_00576'
p908
sS'con_4dfa6ad39ee74'
p909
S'CAO_01103'
p910
sS'con_4e0127abdddd2'
p911
S'CAO_01150'
p912
sS'trm_4c898c0786246'
p913
S'CAO_00740'
p914
sS'trm_4b86c473a7166'
p915
S'CAO_00715'
p916
sS'cnt_4df8fb518c099'
p917
S'CAO_01454'
p918
sS'trm_4ebc98cc77e7b'
p919
S'CAO_01600'
p920
sS'con_4e664dde482aa'
p921
S'CAO_01710'
p922
sS'cnt_4e0381ab6d190'
p923
S'CAO_01633'
p924
sS'trm_4b75ed06c917d'
p925
S'CAO_00676'
p926
sS'trm_4b94affc43245'
p927
S'CAO_00718'
p928
sS'con_4de674d6a83ce'
p929
S'CAO_01036'
p930
sS'con_4c9974a448553'
p931
S'CAO_01011'
p932
sS'con_4ebd485d8c036'
p933
S'CAO_01754'
p934
sS'cnt_4dfa89596184f'
p935
S'CAO_01495'
p936
sS'trm_4c898f8f297ac'
p937
S'CAO_00747'
p938
sS'con_4e4969eae9080'
p939
S'CAO_01186'
p940
sS'trm_4f2414a1bab77'
p941
S'CAO_01624'
p942
sS'trm_4f24189031a4a'
p943
S'CAO_01630'
p944
sS'cnt_4df118fd720dd'
p945
S'CAO_01390'
p946
sS'con_4b7c0325a84d2'
p947
S'CAO_00991'
p948
sS'con_4e6112c1b51c1'
p949
S'CAO_01705'
p950
sS'trm_4f241fd47f16b'
p951
S'CAO_01645'
p952
sS'cnt_4e025694022e0'
p953
S'CAO_01619'
p954
sS'tsk_4a57abb949dd6'
p955
S'CAO_00866'
p956
sS'cnt_4e0101e7e8898'
p957
S'CAO_01560'
p958
sS'trm_4f4672db34a46'
p959
S'CAO_01584'
p960
sS'cnt_4e010b0c971d5'
p961
S'CAO_01564'
p962
sS'cnt_4de968d88e3d3'
p963
S'CAO_01351'
p964
sS'trm_4a3fd79d0ba01'
p965
S'CAO_00659'
p966
sS'trm_4a3fd79d0b8f0'
p967
S'CAO_00636'
p968
sS'trm_4a3fd79d09d58'
p969
S'CAO_00206'
p970
sS'con_4dffd14b5ae1b'
p971
S'CAO_01124'
p972
sS'cnt_4ded3b16cdb74'
p973
S'CAO_01365'
p974
sS'trm_4a3fd79d09919'
p975
S'CAO_00146'
p976
sS'tsk_4a57abb949a6a'
p977
S'CAO_00824'
p978
sS'cnt_4b4a51b667f6c'
p979
S'CAO_01206'
p980
sS'trm_4a3fd79d09827'
p981
S'CAO_00126'
p982
sS'con_4df8fb9e02055'
p983
S'CAO_01102'
p984
sS'trm_4c898acd1f28e'
p985
S'CAO_00733'
p986
sS'cnt_4dfa90af8345d'
p987
S'CAO_01497'
p988
sS'trm_4d559d2703bae'
p989
S'CAO_00897'
p990
sS'trm_4a3fd79d0ba0d'
p991
S'CAO_00660'
p992
sS'cnt_4dfba87cdaf19'
p993
S'CAO_01508'
p994
sS'con_4b8436e0716e9'
p995
S'CAO_01002'
p996
sS'trm_4d7fa1ee2f870'
p997
S'CAO_00686'
p998
sS'cnt_4e664e4c90bf1'
p999
S'CAO_01806'
p1000
sS'trm_4c3e04d656f06'
p1001
S'CAO_00680'
p1002
sS'cnt_4dff92a9d5875'
p1003
S'CAO_01527'
p1004
sS'trm_4a3fd79d0b357'
p1005
S'CAO_00552'
p1006
sS'con_4df8fb518be8c'
p1007
S'CAO_01101'
p1008
sS'trm_4a3fd79d0ab70'
p1009
S'CAO_00436'
p1010
sS'trm_4da8885b33375'
p1011
S'CAO_00937'
p1012
sS'trm_4a3fd79d09f7c'
p1013
S'CAO_00248'
p1014
sS'con_4e6122135c5e3'
p1015
S'CAO_01708'
p1016
sS'cnt_4dfba8b046120'
p1017
S'CAO_01509'
p1018
sS'con_4e49695f7fb24'
p1019
S'CAO_01183'
p1020
sS'cnt_4e02624cbd6c7'
p1021
S'CAO_01624'
p1022
sS'cnt_4e022a9861397'
p1023
S'CAO_01601'
p1024
sS'trm_4a3fd79d0a3d2'
p1025
S'CAO_00312'
p1026
sS'trm_4a3fd79d0afa0'
p1027
S'CAO_00491'
p1028
sS'con_4e5bbcf7e689a'
p1029
S'CAO_01192'
p1030
sS'trm_4f2419c4a1646'
p1031
S'CAO_01632'
p1032
sS'cnt_4d949c9b01604'
p1033
S'CAO_01261'
p1034
sS'trm_4a3fd79d0ab7c'
p1035
S'CAO_00437'
p1036
sS'cnt_4de6c3c82d46d'
p1037
S'CAO_01303'
p1038
sS'con_4de671d131e0a'
p1039
S'CAO_01033'
p1040
sS'cnt_4ded4b345f82a'
p1041
S'CAO_01367'
p1042
sS'tsk_4a57abb949e8a'
p1043
S'CAO_00877'
p1044
sS'trm_4da881dace79c'
p1045
S'CAO_00934'
p1046
sS'cnt_4e08f5a26773d'
p1047
S'CAO_01656'
p1048
sS'trm_4a3fd79d0adb7'
p1049
S'CAO_00463'
p1050
sS'cnt_4caced7c54a55'
p1051
S'CAO_01250'
p1052
sS'trm_4a3fd79d0b1d5'
p1053
S'CAO_00533'
p1054
sS'cnt_4dff8603c1398'
p1055
S'CAO_01525'
p1056
sS'trm_4c898fc6722f4'
p1057
S'CAO_00749'
p1058
sS'trm_4a3fd79d09f70'
p1059
S'CAO_00247'
p1060
sS'cnt_4dffd0380146f'
p1061
S'CAO_01538'
p1062
sS'cnt_4de6bfdf5905a'
p1063
S'CAO_01299'
p1064
sS'trm_4a3fd79d097ed'
p1065
S'CAO_00121'
p1066
sS'cnt_4dfa8214869b9'
p1067
S'CAO_01490'
p1068
sS'trm_4a3fd79d09a10'
p1069
S'CAO_00153'
p1070
sS'con_4ebd41ebc1bbc'
p1071
S'CAO_01739'
p1072
sS'cnt_4e012e2269d7d'
p1073
S'CAO_01588'
p1074
sS'trm_4c899005b11d5'
p1075
S'CAO_00751'
p1076
sS'con_4ebd5afbab5b2'
p1077
S'CAO_01773'
p1078
sS'cnt_4e0236b247798'
p1079
S'CAO_01606'
p1080
sS'trm_4a3fd79d0b130'
p1081
S'CAO_00521'
p1082
sS'con_4de56f7a1755f'
p1083
S'CAO_01026'
p1084
sS'con_4de929a6133f6'
p1085
S'CAO_01074'
p1086
sS'cnt_4e02569dd0139'
p1087
S'CAO_01620'
p1088
sS'trm_4a3fd79d0a84a'
p1089
S'CAO_00389'
p1090
sS'cnt_4de6a2be90526'
p1091
S'CAO_01289'
p1092
sS'trm_4da880ff8fd4a'
p1093
S'CAO_00933'
p1094
sS'trm_4a3fd79d09b04'
p1095
S'CAO_00171'
p1096
sS'cnt_4dfba849ece4c'
p1097
S'CAO_01507'
p1098
sS'trm_4c8a8575d1e55'
p1099
S'CAO_00788'
p1100
sS'trm_4a3fd79d0a6e8'
p1101
S'CAO_00364'
p1102
sS'trm_4a3fd79d0ac4a'
p1103
S'CAO_00446'
p1104
sS'trm_4a3fd79d0a642'
p1105
S'CAO_00351'
p1106
sS'con_4e013090c4ac2'
p1107
S'CAO_01157'
p1108
sS'trm_4a3fd79d097e2'
p1109
S'CAO_00120'
p1110
sS'trm_4a3fd79d0a116'
p1111
S'CAO_00269'
p1112
sS'cnt_4de6c84f74508'
p1113
S'CAO_01306'
p1114
sS'con_4de53abc62726'
p1115
S'CAO_01022'
p1116
sS'con_4e01261c45bc4'
p1117
S'CAO_01141'
p1118
sS'cnt_4df261fc3cd71'
p1119
S'CAO_01402'
p1120
sS'trm_4a3fd79d0a021'
p1121
S'CAO_00251'
p1122
sS'con_4e49604f16ce1'
p1123
S'CAO_01180'
p1124
sS'cnt_4e0182336c9cc'
p1125
S'CAO_01599'
p1126
sS'trm_4a3fd79d0b19b'
p1127
S'CAO_00528'
p1128
sS'trm_4f24126c22011'
p1129
S'CAO_01619'
p1130
sS'trm_4a3fd79d0a590'
p1131
S'CAO_00345'
p1132
sS'cnt_4e08fe051b67b'
p1133
S'CAO_01660'
p1134
sS'trm_4a3fd79d0b13d'
p1135
S'CAO_00522'
p1136
sS'cnt_4b8436b57862e'
p1137
S'CAO_01231'
p1138
sS'trm_4a3fd79d0a73a'
p1139
S'CAO_00370'
p1140
sS'cnt_4dffd14b5b0b3'
p1141
S'CAO_01541'
p1142
sS'cnt_4e0125dc5bc09'
p1143
S'CAO_01575'
p1144
sS'cnt_4dfb9b0719363'
p1145
S'CAO_01505'
p1146
sS'con_4de6d27471736'
p1147
S'CAO_01065'
p1148
sS'tsk_4a57abb949ece'
p1149
S'CAO_00882'
p1150
sS'trm_4f24183fe80c6'
p1151
S'CAO_01629'
p1152
sS'trm_4e550887d92de'
p1153
S'CAO_00969'
p1154
sS'con_4df261fc3cb2d'
p1155
S'CAO_01094'
p1156
sS'cnt_4df289c4c46fa'
p1157
S'CAO_01406'
p1158
sS'tsk_4a57abb949ec0'
p1159
S'CAO_00881'
p1160
sS'trm_4a3fd79d0a20c'
p1161
S'CAO_00286'
p1162
sS'trm_4f2424cb392fc'
p1163
S'CAO_01658'
p1164
sS'cnt_4dffd3273f13e'
p1165
S'CAO_01547'
p1166
sS'con_4de671e759538'
p1167
S'CAO_01034'
p1168
sS'cnt_4e012e64947cf'
p1169
S'CAO_01589'
p1170
sS'con_4b196a106c24a'
p1171
S'CAO_00975'
p1172
sS'cnt_4df93a3c9bd2c'
p1173
S'CAO_01468'
p1174
sS'trm_4c40d1d16071e'
p1175
S'CAO_00725'
p1176
sS'trm_4a3fd79d0b5a7'
p1177
S'CAO_00587'
p1178
sS'cnt_4e5e7ca787237'
p1179
S'CAO_01794'
p1180
sS'con_4e496a10647ec'
p1181
S'CAO_01187'
p1182
sS'con_4e49606e91d44'
p1183
S'CAO_01181'
p1184
sS'trm_4a3fd79d0ba3c'
p1185
S'CAO_00664'
p1186
sS'trm_4c898f079d05e'
p1187
S'CAO_00745'
p1188
sS'cnt_4e0130c979bf1'
p1189
S'CAO_01595'
p1190
sS'cnt_4dfbd05eb07d6'
p1191
S'CAO_01517'
p1192
sS'con_4e68e14867ee2'
p1193
S'CAO_01714'
p1194
sS'tsk_4a57abb949edb'
p1195
S'CAO_00883'
p1196
sS'cnt_4dffd280187c6'
p1197
S'CAO_01545'
p1198
sS'trm_4f2457d94fd93'
p1199
S'CAO_01691'
p1200
sS'cnt_4e00fd3de3b0a'
p1201
S'CAO_01557'
p1202
sS'cnt_4dffcea990109'
p1203
S'CAO_01536'
p1204
sS'trm_4a3fd79d0b636'
p1205
S'CAO_00597'
p1206
sS'tsk_4a57abb949a78'
p1207
S'CAO_00825'
p1208
sS'cnt_4df2917218780'
p1209
S'CAO_01408'
p1210
sS'trm_4a3fd79d0ba30'
p1211
S'CAO_00663'
p1212
sS'cnt_4de93a6779688'
p1213
S'CAO_01342'
p1214
sS'cnt_4e0265502e5be'
p1215
S'CAO_01627'
p1216
sS'trm_4a3fd79d0a51c'
p1217
S'CAO_00336'
p1218
sS'trm_4a3fd79d09d41'
p1219
S'CAO_00204'
p1220
sS'cnt_4de57f6d43cfd'
p1221
S'CAO_01270'
p1222
sS'trm_4f24112057e90'
p1223
S'CAO_01616'
p1224
sS'trm_4a3fd79d0b908'
p1225
S'CAO_00638'
p1226
sS'trm_4f24550fc5f38'
p1227
S'CAO_01685'
p1228
sS'trm_4a3fd79d09f87'
p1229
S'CAO_00249'
p1230
sS'trm_4a3fd79d09855'
p1231
S'CAO_00130'
p1232
sS'cnt_4dfbaf4e94f96'
p1233
S'CAO_01512'
p1234
sS'trm_4a3fd79d0aab0'
p1235
S'CAO_00428'
p1236
sS'con_4de53a974622f'
p1237
S'CAO_01021'
p1238
sS'trm_4a3fd79d0a3ea'
p1239
S'CAO_00313'
p1240
sS'tsk_4a57abb949e98'
p1241
S'CAO_00878'
p1242
sS'cnt_4df8fb9e0224f'
p1243
S'CAO_01455'
p1244
sS'trm_4c89910b7f8bc'
p1245
S'CAO_00760'
p1246
sS'cnt_4df11498b1933'
p1247
S'CAO_01389'
p1248
sS'trm_4a3fd79d096be'
p1249
S'CAO_00101'
p1250
sS'con_4ded4b7c48e71'
p1251
S'CAO_01087'
p1252
sS'cnt_4df8e900881cf'
p1253
S'CAO_01450'
p1254
sS'trm_4b86c55f3d5df'
p1255
S'CAO_00716'
p1256
sS'trm_4a3fd79d0ab65'
p1257
S'CAO_00435'
p1258
sS'trm_4a3fd79d09d4d'
p1259
S'CAO_00205'
p1260
sS'cnt_4df2a27d637b3'
p1261
S'CAO_01418'
p1262
sS'trm_4a3fd79d0ad64'
p1263
S'CAO_00459'
p1264
sS'cnt_4dfbb1f51259f'
p1265
S'CAO_01515'
p1266
sS'con_4e5e7bb11d3b2'
p1267
S'CAO_01696'
p1268
sS'trm_4a3fd79d0b832'
p1269
S'CAO_00623'
p1270
sS'cnt_4de53abc62d10'
p1271
S'CAO_01258'
p1272
sS'trm_4a3fd79d0aabc'
p1273
S'CAO_00429'
p1274
sS'con_4ebd4cf1e5218'
p1275
S'CAO_01756'
p1276
sS'cnt_4de7d07b4366d'
p1277
S'CAO_01323'
p1278
sS'trm_4a3fd79d09e2a'
p1279
S'CAO_00222'
p1280
sS'con_4de677aa1df70'
p1281
S'CAO_01038'
p1282
sS'trm_4f2453ce33f16'
p1283
S'CAO_01683'
p1284
sS'trm_4c8a84afdd863'
p1285
S'CAO_00784'
p1286
sS'trm_4a3fd79d0b340'
p1287
S'CAO_00550'
p1288
sS'trm_4da86cb034ff6'
p1289
S'CAO_00921'
p1290
sS'trm_4a3fd79d0b8d9'
p1291
S'CAO_00634'
p1292
sS'trm_4a3fd79d0a908'
p1293
S'CAO_00397'
p1294
sS'trm_4a3fd79d09f64'
p1295
S'CAO_00246'
p1296
sS'cnt_4df685e797da2'
p1297
S'CAO_01430'
p1298
sS'con_4ebd44f6ce988'
p1299
S'CAO_01745'
p1300
sS'trm_4a3fd79d0a6d0'
p1301
S'CAO_00362'
p1302
sS'con_4e5fcf1a7fb30'
p1303
S'CAO_01703'
p1304
sS'trm_4f244c1f6b53f'
p1305
S'CAO_01673'
p1306
sS'tsk_4a57abb949900'
p1307
S'CAO_00807'
p1308
sS'trm_4a3fd79d0a7d4'
p1309
S'CAO_00379'
p1310
sS'cnt_4e025d79cc9f9'
p1311
S'CAO_01621'
p1312
sS'trm_4a3fd79d0a695'
p1313
S'CAO_00357'
p1314
sS'cnt_4df1143e30adb'
p1315
S'CAO_01388'
p1316
sS'trm_4a3fd79d0b014'
p1317
S'CAO_00499'
p1318
sS'trm_4a3fd79d0b125'
p1319
S'CAO_00520'
p1320
sS'cnt_4e0219a2de6be'
p1321
S'CAO_01600'
p1322
sS'trm_4f24239cc239e'
p1323
S'CAO_01655'
p1324
sS'con_4de6b69d1e52b'
p1325
S'CAO_01049'
p1326
sS'trm_4a3fd79d0b34b'
p1327
S'CAO_00551'
p1328
sS'tsk_4a57abb949dad'
p1329
S'CAO_00863'
p1330
sS'cnt_4e012f7ba05e2'
p1331
S'CAO_01590'
p1332
sS'trm_4e5bb14d814a8'
p1333
S'CAO_00971'
p1334
sS'trm_4e8a0dd29ec7b'
p1335
S'CAO_01594'
p1336
sS'cnt_4df298fddce13'
p1337
S'CAO_01412'
p1338
sS'trm_4a3fd79d09b79'
p1339
S'CAO_00179'
p1340
sS'trm_4a3fd79d0a10a'
p1341
S'CAO_00268'
p1342
sS'cnt_4dee593ebfcc7'
p1343
S'CAO_01378'
p1344
sS'trm_4a3fd79d097f9'
p1345
S'CAO_00122'
p1346
sS'con_4dffd28018603'
p1347
S'CAO_01128'
p1348
sS'trm_4f244a453522b'
p1349
S'CAO_01669'
p1350
sS'cnt_4e31e8204dad4'
p1351
S'CAO_01664'
p1352
sS'trm_4a3fd79d09eda'
p1353
S'CAO_00234'
p1354
sS'con_4e68e0ec9397f'
p1355
S'CAO_01712'
p1356
sS'con_4f4182c4c2814'
p1357
S'CAO_01793'
p1358
sS'trm_4a3fd79d0a6dc'
p1359
S'CAO_00363'
p1360
sS'trm_4a3fd79d0a275'
p1361
S'CAO_00295'
p1362
sS'trm_4a3fd79d0b0b1'
p1363
S'CAO_00511'
p1364
sS'cnt_4dfa6b1c622b1'
p1365
S'CAO_01481'
p1366
sS'con_4b1969ec123ec'
p1367
S'CAO_00973'
p1368
sS'trm_4a3fd79d0b65a'
p1369
S'CAO_00599'
p1370
sS'trm_4a3fd79d0a87a'
p1371
S'CAO_00392'
p1372
sS'con_4dff8030b7c3b'
p1373
S'CAO_01118'
p1374
sS'trm_4e416f1373936'
p1375
S'CAO_00701'
p1376
sS'trm_4c898f72228f3'
p1377
S'CAO_00746'
p1378
sS'cnt_4dfa7237ec1f0'
p1379
S'CAO_01487'
p1380
sS'trm_4f240f1c740da'
p1381
S'CAO_01612'
p1382
sS'con_4edcf376a11cb'
p1383
S'CAO_01787'
p1384
sS'trm_4a3fd79d0a05b'
p1385
S'CAO_00256'
p1386
sS'trm_4a3fd79d0b4b5'
p1387
S'CAO_00573'
p1388
sS'con_4e496f2729d3f'
p1389
S'CAO_01188'
p1390
sS'trm_4a3fd79d09c05'
p1391
S'CAO_00188'
p1392
sS'tsk_4a57abb949bf6'
p1393
S'CAO_00847'
p1394
sS'cnt_4e496d475896c'
p1395
S'CAO_01669'
p1396
sS'trm_4a3fd79d0a300'
p1397
S'CAO_00298'
p1398
sS'con_4ebd43e58784f'
p1399
S'CAO_01742'
p1400
sS'cnt_4de677aa1e1bb'
p1401
S'CAO_01281'
p1402
sS'trm_4c8990480ad0f'
p1403
S'CAO_00753'
p1404
sS'trm_4da89089ce0af'
p1405
S'CAO_00955'
p1406
sS'cnt_4de93d2864ae9'
p1407
S'CAO_01343'
p1408
sS'cnt_4de56f7a17762'
p1409
S'CAO_01265'
p1410
sS'trm_4f4511e519b53'
p1411
S'CAO_01583'
p1412
sS'trm_4a3fd79d0abcd'
p1413
S'CAO_00444'
p1414
sS'trm_4c89926767870'
p1415
S'CAO_00769'
p1416
sS'cnt_4df689d409dec'
p1417
S'CAO_01431'
p1418
sS'trm_4a3fd79d0b83e'
p1419
S'CAO_00624'
p1420
sS'trm_4cacee4a1d875'
p1421
S'CAO_00792'
p1422
sS'con_4e01268a18d60'
p1423
S'CAO_01144'
p1424
sS'trm_4a3fd79d0a30c'
p1425
S'CAO_00299'
p1426
sS'trm_4f2457454e458'
p1427
S'CAO_01689'
p1428
sS'cnt_4be6eb858054b'
p1429
S'CAO_01237'
p1430
sS'trm_4a3fd79d0abc1'
p1431
S'CAO_00443'
p1432
sS'cnt_4dee50e19a0a5'
p1433
S'CAO_01376'
p1434
sS'con_4e5d07e8aa85f'
p1435
S'CAO_01194'
p1436
sS'trm_4f241fe40a950'
p1437
S'CAO_01646'
p1438
sS'cnt_4ded1fc8db0c2'
p1439
S'CAO_01359'
p1440
sS'cnt_4dfa889b33ecf'
p1441
S'CAO_01492'
p1442
sS'cnt_4df69a929ce35'
p1443
S'CAO_01436'
p1444
sS'trm_4da88bb3c2462'
p1445
S'CAO_00945'
p1446
sS'trm_4b94b12bf0eb2'
p1447
S'CAO_00719'
p1448
sS'con_4ebd3d3ded757'
p1449
S'CAO_01732'
p1450
sS'cnt_4de6722368730'
p1451
S'CAO_01278'
p1452
sS'con_4decfedb911e2'
p1453
S'CAO_01080'
p1454
sS'trm_4a3fd79d0ba25'
p1455
S'CAO_00662'
p1456
sS'trm_4a3fd79d0af7d'
p1457
S'CAO_00489'
p1458
sS'tsk_4a57abb949a0d'
p1459
S'CAO_00818'
p1460
sS'cnt_4df26816e1c98'
p1461
S'CAO_01405'
p1462
sS'trm_4a3fd79d0b938'
p1463
S'CAO_00642'
p1464
sS'con_4de67164155d6'
p1465
S'CAO_01031'
p1466
sS'tsk_4a57abb949f12'
p1467
S'CAO_00887'
p1468
sS'trm_4a3fd79d09d70'
p1469
S'CAO_00208'
p1470
sS'cnt_4b7c101e9b549'
p1471
S'CAO_01225'
p1472
sS'con_4de7e52cd087d'
p1473
S'CAO_01070'
p1474
sS'cnt_4b7c0325a9f17'
p1475
S'CAO_01218'
p1476
sS'trm_4d54b61a14a14'
p1477
S'CAO_00893'
p1478
sS'trm_4ebd47b8bab6b'
p1479
S'CAO_01604'
p1480
sS'cnt_4bd1ebae45752'
p1481
S'CAO_01234'
p1482
sS'trm_4a3fd79d09af8'
p1483
S'CAO_00170'
p1484
sS'trm_4f240e7f989f8'
p1485
S'CAO_01610'
p1486
sS'cnt_4de7d854ceb50'
p1487
S'CAO_01326'
p1488
sS'trm_4a3fd79d0aac8'
p1489
S'CAO_00430'
p1490
sS'trm_4a3fd79d0af71'
p1491
S'CAO_00488'
p1492
sS'trm_4c40d4054f38b'
p1493
S'CAO_00728'
p1494
sS'trm_4a3fd79d09849'
p1495
S'CAO_00129'
p1496
sS'trm_4b185801de7a1'
p1497
S'CAO_00671'
p1498
sS'trm_4a3fd79d0b7b5'
p1499
S'CAO_00617'
p1500
sS'trm_4f241e8a01052'
p1501
S'CAO_01642'
p1502
sS'con_4e496f4abd731'
p1503
S'CAO_01189'
p1504
sS'trm_4a3fd79d0a3f6'
p1505
S'CAO_00314'
p1506
sS'trm_4f2411c91ae5e'
p1507
S'CAO_01618'
p1508
sS'trm_4c898b4b463aa'
p1509
S'CAO_00736'
p1510
sS'trm_4c8a8388de5ea'
p1511
S'CAO_00775'
p1512
sS'tsk_4a57abb949eb3'
p1513
S'CAO_00880'
p1514
sS'cnt_4e0232312c822'
p1515
S'CAO_01604'
p1516
sS'trm_4e61264db33d4'
p1517
S'CAO_01574'
p1518
sS'cnt_4b7c044e556ea'
p1519
S'CAO_01222'
p1520
sS'cnt_4dfa42ba0f7c2'
p1521
S'CAO_01475'
p1522
sS'con_4df298c5963fa'
p1523
S'CAO_01095'
p1524
sS'trm_4a3fd79d0ad12'
p1525
S'CAO_00453'
p1526
sS'trm_4a3fd79d0ae2b'
p1527
S'CAO_00471'
p1528
sS'trm_4a3fd79d0a1f4'
p1529
S'CAO_00285'
p1530
sS'cnt_4de6a278a7dd5'
p1531
S'CAO_01288'
p1532
sS'trm_4a3fd79d0b802'
p1533
S'CAO_00619'
p1534
sS'trm_4a3fd79d0a9d0'
p1535
S'CAO_00413'
p1536
sS'con_4e012fc0a6afb'
p1537
S'CAO_01154'
p1538
sS'con_4b8436b5767e7'
p1539
S'CAO_01001'
p1540
sS'con_4e31e8204d888'
p1541
S'CAO_01174'
p1542
sS'cnt_4e038151ee9fb'
p1543
S'CAO_01632'
p1544
sS'cnt_4df24f7376278'
p1545
S'CAO_01397'
p1546
sS'trm_4da86c6808ddd'
p1547
S'CAO_00919'
p1548
sS'trm_4a3fd79d0b247'
p1549
S'CAO_00537'
p1550
sS'cnt_4e02654a92111'
p1551
S'CAO_01626'
p1552
sS'con_4ebd8d721c4dc'
p1553
S'CAO_01783'
p1554
sS'trm_4a3fd79d0b80f'
p1555
S'CAO_00620'
p1556
sS'trm_4a3fd79d0ab59'
p1557
S'CAO_00434'
p1558
sS'trm_4a3fd79d0a9dc'
p1559
S'CAO_00414'
p1560
sS'trm_4a3fd79d0b1f7'
p1561
S'CAO_00535'
p1562
sS'tsk_4a57abb949d32'
p1563
S'CAO_00854'
p1564
sS'cnt_4c6b600d4b80f'
p1565
S'CAO_01245'
p1566
sS'trm_4a3fd79d0a914'
p1567
S'CAO_00398'
p1568
sS'trm_4a3fd79d0ad1d'
p1569
S'CAO_00454'
p1570
sS'trm_4c8a84d4c4157'
p1571
S'CAO_00785'
p1572
sS'cnt_4df133a20d8da'
p1573
S'CAO_01391'
p1574
sS'trm_4a3fd79d09f59'
p1575
S'CAO_00245'
p1576
sS'trm_4c89912c79030'
p1577
S'CAO_00761'
p1578
sS'trm_4a3fd79d0a4a6'
p1579
S'CAO_00327'
p1580
sS'trm_4a3fd79d0a46b'
p1581
S'CAO_00322'
p1582
sS'tsk_4a57abb949912'
p1583
S'CAO_00808'
p1584
sS'trm_4a3fd79d09b6d'
p1585
S'CAO_00704'
p1586
sS'trm_4e5faabfe8ce3'
p1587
S'CAO_01573'
p1588
sS'trm_4a3fd79d0b46f'
p1589
S'CAO_00567'
p1590
sS'trm_4a3fd79d0a689'
p1591
S'CAO_00356'
p1592
sS'trm_4a3fd79d0b2a8'
p1593
S'CAO_00543'
p1594
sS'trm_4a3fd79d0a86e'
p1595
S'CAO_00391'
p1596
sS'trm_4a3fd79d0b487'
p1597
S'CAO_00569'
p1598
sS'trm_4a3fd79d0a04f'
p1599
S'CAO_00255'
p1600
sS'cnt_4df29eca27ab5'
p1601
S'CAO_01416'
p1602
sS'trm_4a3fd79d0b463'
p1603
S'CAO_00566'
p1604
sS'trm_4a3fd79d09b62'
p1605
S'CAO_00178'
p1606
sS'cnt_4b7c1033c2b16'
p1607
S'CAO_01226'
p1608
sS'trm_4a3fd79d0b06b'
p1609
S'CAO_00505'
p1610
sS'trm_4a3fd79d0a6c5'
p1611
S'CAO_00361'
p1612
sS'con_4de6c00e51ce0'
p1613
S'CAO_01052'
p1614
sS'trm_4a3fd79d0b665'
p1615
S'CAO_00600'
p1616
sS'trm_4a3fd79d0a460'
p1617
S'CAO_00321'
p1618
sS'con_4dffd0991b013'
p1619
S'CAO_01122'
p1620
sS'trm_4a3fd79d0a044'
p1621
S'CAO_00254'
p1622
sS'con_4e5fce7f45ec7'
p1623
S'CAO_01701'
p1624
sS'trm_4a3fd79d0a862'
p1625
S'CAO_00390'
p1626
sS'con_4ebd3f96a11e3'
p1627
S'CAO_01693'
p1628
sS'con_4e02713a4577a'
p1629
S'CAO_01163'
p1630
sS'trm_4a3fd79d0a269'
p1631
S'CAO_00294'
p1632
sS'cnt_4e5fcfe2883a1'
p1633
S'CAO_01800'
p1634
sS'cnt_4df91d85ed597'
p1635
S'CAO_01461'
p1636
sS'con_4de93ddadf156'
p1637
S'CAO_01077'
p1638
sS'cnt_4e00e397017e2'
p1639
S'CAO_01556'
p1640
sS'trm_4f244fee7d195'
p1641
S'CAO_01679'
p1642
sS'trm_4f244a88013ae'
p1643
S'CAO_01671'
p1644
sS'trm_4da88b3b0cbcc'
p1645
S'CAO_00942'
p1646
sS'cnt_4de7ddfb129a6'
p1647
S'CAO_01331'
p1648
sS'trm_4a3fd79d09ee6'
p1649
S'CAO_00235'
p1650
sS'cnt_4ebca1f15eb7d'
p1651
S'CAO_01814'
p1652
sS'cnt_4e68e16ce673d'
p1653
S'CAO_01807'
p1654
sS'trm_4a3fd79d09c11'
p1655
S'CAO_00189'
p1656
sS'trm_4a3fd79d0b4c1'
p1657
S'CAO_00574'
p1658
sS'trm_4a3fd79d0b043'
p1659
S'CAO_00503'
p1660
sS'con_4e6121f28cb21'
p1661
S'CAO_01707'
p1662
sS'tsk_4a57abb949ee9'
p1663
S'CAO_00884'
p1664
sS'trm_4a3fd79d0a318'
p1665
S'CAO_00300'
p1666
sS'cnt_4ebca202935c6'
p1667
S'CAO_01815'
p1668
sS'trm_4a3fd79d09c1c'
p1669
S'CAO_00190'
p1670
sS'trm_4a3fd79d0b4cd'
p1671
S'CAO_00575'
p1672
sS'trm_4a3fd79d0aed8'
p1673
S'CAO_00482'
p1674
sS'cnt_4e026dfa02b6d'
p1675
S'CAO_01628'
p1676
sS'cnt_4e039557ad404'
p1677
S'CAO_01640'
p1678
sS'trm_4f241614d4a25'
p1679
S'CAO_01626'
p1680
sS'con_4ebd50a63e4fd'
p1681
S'CAO_01757'
p1682
sS'cnt_4de6d1650c739'
p1683
S'CAO_01314'
p1684
sS'cnt_4de671af5aeb3'
p1685
S'CAO_01275'
p1686
sS'trm_4a3fd79d0b5c0'
p1687
S'CAO_00588'
p1688
sS'trm_4c898da401420'
p1689
S'CAO_00744'
p1690
sS'trm_4f46753b8be4f'
p1691
S'CAO_01585'
p1692
sS'cnt_4e01261c45db8'
p1693
S'CAO_01576'
p1694
sS'trm_4a3fd79d0a7ec'
p1695
S'CAO_00381'
p1696
sS'trm_4a3fd79d0abb6'
p1697
S'CAO_00442'
p1698
sS'trm_4da86c8bb3b04'
p1699
S'CAO_00920'
p1700
sS'trm_4da88a8e13f26'
p1701
S'CAO_00939'
p1702
sS'cnt_4e5e7c658c494'
p1703
S'CAO_01796'
p1704
sS'cnt_4ded2a911252c'
p1705
S'CAO_01360'
p1706
sS'trm_4a3fd79d0a7e0'
p1707
S'CAO_00380'
p1708
sS'trm_4f241bd52b509'
p1709
S'CAO_01636'
p1710
sS'trm_4f241d7adf14e'
p1711
S'CAO_01641'
p1712
sS'trm_4f241325579c6'
p1713
S'CAO_01621'
p1714
sS'trm_4da890cf99b9e'
p1715
S'CAO_00957'
p1716
sS'con_4de6ae3e22fb0'
p1717
S'CAO_01048'
p1718
sS'cnt_4dffcee92f400'
p1719
S'CAO_01537'
p1720
sS'trm_4a3fd79d0b5cb'
p1721
S'CAO_00589'
p1722
sS'cnt_4dfa893ade336'
p1723
S'CAO_01494'
p1724
sS'con_4ebd6d2831524'
p1725
S'CAO_01780'
p1726
sS'trm_4da869646e5d1'
p1727
S'CAO_00914'
p1728
sS'trm_4a3fd79d0a886'
p1729
S'CAO_00393'
p1730
sS'con_4e038e90bd1f9'
p1731
S'CAO_01166'
p1732
sS'con_4e5e7b75a6db4'
p1733
S'CAO_01694'
p1734
sS'con_4e495af163b9a'
p1735
S'CAO_01177'
p1736
sS'trm_4a3fd79d0a67d'
p1737
S'CAO_00355'
p1738
sS'trm_4a3fd79d0b920'
p1739
S'CAO_00640'
p1740
sS'trm_4c898be57fcbc'
p1741
S'CAO_00739'
p1742
sS'trm_4a3fd79d0989a'
p1743
S'CAO_00136'
p1744
sS'trm_4a3fd79d0b81b'
p1745
S'CAO_00621'
p1746
sS'trm_4a3fd79d09d64'
p1747
S'CAO_00207'
p1748
sS'cnt_4e08fefbf0382'
p1749
S'CAO_01662'
p1750
sS'trm_4a3fd79d09bb3'
p1751
S'CAO_00182'
p1752
sS'trm_4d2201d530697'
p1753
S'CAO_00684'
p1754
sS'trm_4a3fd79d09877'
p1755
S'CAO_00133'
p1756
sS'cnt_4de5788dbc6ec'
p1757
S'CAO_01269'
p1758
sS'cnt_4df8fc1e54759'
p1759
S'CAO_01457'
p1760
sS'trm_4da887bdd8908'
p1761
S'CAO_00936'
p1762
sS'cnt_4de7d0972591c'
p1763
S'CAO_01324'
p1764
sS'cnt_4de6789784d77'
p1765
S'CAO_01283'
p1766
sS'trm_4c8a85c5c75eb'
p1767
S'CAO_00791'
p1768
sS'trm_4a3fd79d0a9e8'
p1769
S'CAO_00415'
p1770
sS'trm_4a3fd79d0b4a9'
p1771
S'CAO_00572'
p1772
sS'trm_4b7c27094a093'
p1773
S'CAO_00678'
p1774
sS'trm_4c89913f80802'
p1775
S'CAO_00762'
p1776
sS'trm_4a3fd79d0b92c'
p1777
S'CAO_00641'
p1778
sS'trm_4f244860c702c'
p1779
S'CAO_01664'
p1780
sS'con_4b4a5f6515553'
p1781
S'CAO_00987'
p1782
sS'cnt_4df293d2889cb'
p1783
S'CAO_01410'
p1784
sS'trm_4b7497a289534'
p1785
S'CAO_00710'
p1786
sS'con_4de91ce5f25a9'
p1787
S'CAO_01073'
p1788
sS'cnt_4de55b6707536'
p1789
S'CAO_01262'
p1790
sS'con_4e08ed9422d1a'
p1791
S'CAO_01168'
p1792
sS'trm_4e6114e7b1ff2'
p1793
S'CAO_01589'
p1794
sS'trm_4d54b2cc0f943'
p1795
S'CAO_00892'
p1796
sS'trm_4f24194bce29f'
p1797
S'CAO_01631'
p1798
sS'trm_4a3fd79d0b2bf'
p1799
S'CAO_00545'
p1800
sS'cnt_4b7c0a3329368'
p1801
S'CAO_01223'
p1802
sS'trm_4a3fd79d0ac30'
p1803
S'CAO_00445'
p1804
sS'con_4edcf41fb3c07'
p1805
S'CAO_01791'
p1806
sS'con_4cacf2671647d'
p1807
S'CAO_01015'
p1808
sS'trm_4a3fd79d0a33b'
p1809
S'CAO_00303'
p1810
sS'con_4e01278c5e3b9'
p1811
S'CAO_01149'
p1812
sS'trm_4a3fd79d0ab42'
p1813
S'CAO_00432'
p1814
sS'cnt_4ded480d5aec0'
p1815
S'CAO_01366'
p1816
sS'trm_4a3fd79d0b1a6'
p1817
S'CAO_00529'
p1818
sS'cnt_4df69aa85f4ee'
p1819
S'CAO_01437'
p1820
sS'cnt_4e02624559a17'
p1821
S'CAO_01623'
p1822
sS'trm_4f24496a80587'
p1823
S'CAO_01667'
p1824
sS'con_4de6722368540'
p1825
S'CAO_01035'
p1826
sS'tsk_4a57abb949d25'
p1827
S'CAO_00853'
p1828
sS'trm_4a3fd79d0b49e'
p1829
S'CAO_00571'
p1830
sS'trm_4a3fd79d09f42'
p1831
S'CAO_00243'
p1832
sS'trm_4a3fd79d09a6c'
p1833
S'CAO_00158'
p1834
sS'trm_4e8dd3831f0cc'
p1835
S'CAO_01595'
p1836
sS'tsk_4a57abb949923'
p1837
S'CAO_00809'
p1838
sS'trm_4a3fd79d0b077'
p1839
S'CAO_00506'
p1840
sS'trm_4a3fd79d0b2b4'
p1841
S'CAO_00544'
p1842
sS'trm_4f244d64e45bc'
p1843
S'CAO_01675'
p1844
sS'trm_4a3fd79d0a4e1'
p1845
S'CAO_00331'
p1846
sS'trm_4a3fd79d09f4d'
p1847
S'CAO_00244'
p1848
sS'trm_4a3fd79d0b492'
p1849
S'CAO_00570'
p1850
sS'con_4ded2bceed869'
p1851
S'CAO_01085'
p1852
sS'trm_4a3fd79d0ab4d'
p1853
S'CAO_00433'
p1854
sS'cnt_4e01329cad8aa'
p1855
S'CAO_01596'
p1856
sS'con_4de7dc695f6f3'
p1857
S'CAO_01068'
p1858
sS'trm_4a3fd79d0ae3d'
p1859
S'CAO_00472'
p1860
sS'con_4ebd400a8721f'
p1861
S'CAO_01692'
p1862
sS'trm_4a3fd79d0a25e'
p1863
S'CAO_00293'
p1864
sS'cnt_4de6c5f53e708'
p1865
S'CAO_01304'
p1866
sS'trm_4a3fd79d0a781'
p1867
S'CAO_00374'
p1868
sS'con_4de67800c8e2a'
p1869
S'CAO_01039'
p1870
sS'trm_4a3fd79d0a419'
p1871
S'CAO_00316'
p1872
sS'trm_4a3fd79d0b671'
p1873
S'CAO_00601'
p1874
sS'tsk_4a57abb949ad7'
p1875
S'CAO_00832'
p1876
sS'trm_4a3fd79d0a6b9'
p1877
S'CAO_00360'
p1878
sS'con_4ebd40282d26c'
p1879
S'CAO_01734'
p1880
sS'trm_4c8a84f20dde2'
p1881
S'CAO_00786'
p1882
sS'con_4edcf3d070d1c'
p1883
S'CAO_01789'
p1884
sS'trm_4a3fd79d0a072'
p1885
S'CAO_00258'
p1886
sS'trm_4f2454dfca337'
p1887
S'CAO_01684'
p1888
sS'con_4e011b28ce9da'
p1889
S'CAO_01139'
p1890
sS'trm_4a3fd79d0a891'
p1891
S'CAO_00394'
p1892
sS'con_4de7dcca3449f'
p1893
S'CAO_01069'
p1894
sS'trm_4e31d365bc7e2'
p1895
S'CAO_00696'
p1896
sS'trm_4a3fd79d0b67d'
p1897
S'CAO_00602'
p1898
sS'trm_4a3fd79d0a095'
p1899
S'CAO_00261'
p1900
sS'cnt_4cacf44631b29'
p1901
S'CAO_01256'
p1902
sS'cnt_4b4a5481dc0f2'
p1903
S'CAO_01210'
p1904
sS'con_4de6d42855b8b'
p1905
S'CAO_01066'
p1906
sS'trm_4b65259eeee34'
p1907
S'CAO_00675'
p1908
sS'con_4de5788dbc4bf'
p1909
S'CAO_01028'
p1910
sS'trm_4a3fd79d0b47b'
p1911
S'CAO_00568'
p1912
sS'trm_4a3fd79d0a252'
p1913
S'CAO_00292'
p1914
sS'cnt_4b4a5490f1bb4'
p1915
S'CAO_01211'
p1916
sS'trm_4da87e7282f92'
p1917
S'CAO_00926'
p1918
sS'cnt_4dffb483c4c3f'
p1919
S'CAO_01531'
p1920
sS'cnt_4ebca2351bb79'
p1921
S'CAO_01817'
p1922
sS'cnt_4ded2aa1ea79d'
p1923
S'CAO_01361'
p1924
sS'cnt_4dfa9088a6739'
p1925
S'CAO_01496'
p1926
sS'con_4ebd41c62e086'
p1927
S'CAO_01738'
p1928
sS'trm_4a3fd79d09c28'
p1929
S'CAO_00191'
p1930
sS'con_4e6a34c8e3614'
p1931
S'CAO_01718'
p1932
sS'trm_4a3fd79d0a07e'
p1933
S'CAO_00259'
p1934
sS'trm_4a3fd79d0a323'
p1935
S'CAO_00301'
p1936
sS'cnt_4df91dd29b1c6'
p1937
S'CAO_01463'
p1938
sS'con_4ebd5ac6c401f'
p1939
S'CAO_01770'
p1940
sS'tsk_4a57abb949ef7'
p1941
S'CAO_00885'
p1942
sS'con_4ebc684fbf0dd'
p1943
S'CAO_01725'
p1944
sS'con_4e6a453d055e8'
p1945
S'CAO_01719'
p1946
sS'trm_4a3fd79d0aee4'
p1947
S'CAO_00483'
p1948
sS'con_4dffd0f56b62b'
p1949
S'CAO_01123'
p1950
sS'cnt_4ebcaad4c41d7'
p1951
S'CAO_01824'
p1952
sS'cnt_4df8ef730f4cb'
p1953
S'CAO_01451'
p1954
sS'trm_4a3fd79d0abaa'
p1955
S'CAO_00441'
p1956
sS'trm_4c89909cc1f33'
p1957
S'CAO_00755'
p1958
sS'cnt_4dffdeb36edc5'
p1959
S'CAO_01552'
p1960
sS'con_4e4969740c6a5'
p1961
S'CAO_01184'
p1962
sS'trm_4a3fd79d0a32f'
p1963
S'CAO_00302'
p1964
sS'trm_4a3fd79d0b8e5'
p1965
S'CAO_00635'
p1966
sS'con_4de6789784b81'
p1967
S'CAO_01040'
p1968
sS'trm_4da631be60291'
p1969
S'CAO_00906'
p1970
sS'trm_4a3fd79d0aeef'
p1971
S'CAO_00484'
p1972
sS'trm_4a3fd79d0a7f8'
p1973
S'CAO_00382'
p1974
sS'cnt_4de7e52cd0ad6'
p1975
S'CAO_01333'
p1976
sS'trm_4d55997cd3edb'
p1977
S'CAO_00895'
p1978
sS'cnt_4e02433a9f223'
p1979
S'CAO_01612'
p1980
sS'tsk_4a57abb949f3d'
p1981
S'CAO_00890'
p1982
sS'tsk_4a57abb949a25'
p1983
S'CAO_00819'
p1984
sS'con_4ebd5abb4cf5a'
p1985
S'CAO_01769'
p1986
sS'trm_4c8a85a4564b2'
p1987
S'CAO_00790'
p1988
sS'trm_4a3fd79d0b0bd'
p1989
S'CAO_00512'
p1990
sS'cnt_4e611331826a0'
p1991
S'CAO_01803'
p1992
sS'con_4b4a2f2e253fc'
p1993
S'CAO_00978'
p1994
sS'trm_4a3fd79d0af5a'
p1995
S'CAO_00486'
p1996
sS'trm_4a3fd79d0986c'
p1997
S'CAO_00132'
p1998
sS'cnt_4df7bfc72c237'
p1999
S'CAO_01443'
p2000
sS'trm_4c40d2a93ea15'
p2001
S'CAO_00726'
p2002
sS'cnt_4e5fd004d47d7'
p2003
S'CAO_01802'
p2004
sS'cnt_4e5e7c8b11873'
p2005
S'CAO_01795'
p2006
sS'cnt_4e0399bbae0ed'
p2007
S'CAO_01641'
p2008
sS'tsk_4a57abb9498ef'
p2009
S'CAO_00806'
p2010
sS'con_4de6c62e9b3ed'
p2011
S'CAO_01055'
p2012
sS'trm_4a3fd79d09ad5'
p2013
S'CAO_00167'
p2014
sS'trm_4a3fd79d09861'
p2015
S'CAO_00131'
p2016
sS'trm_4a3fd79d0aaa4'
p2017
S'CAO_00427'
p2018
sS'cnt_4de6d42855dcd'
p2019
S'CAO_01317'
p2020
sS'trm_4a3fd79d09883'
p2021
S'CAO_00134'
p2022
sS'tsk_4a57abb949b54'
p2023
S'CAO_00841'
p2024
sS'trm_4a3fd79d0b862'
p2025
S'CAO_00626'
p2026
sS'trm_4a3fd79d0b26d'
p2027
S'CAO_00538'
p2028
sS'trm_4a3fd79d0a9b9'
p2029
S'CAO_00411'
p2030
sS'cnt_4de6c3b459269'
p2031
S'CAO_01302'
p2032
sS'cnt_4be6ec4cb064c'
p2033
S'CAO_01241'
p2034
sS'cnt_4e08ed6a4d30d'
p2035
S'CAO_01650'
p2036
sS'con_4de6758abdd95'
p2037
S'CAO_01037'
p2038
sS'trm_4a3fd79d09b3f'
p2039
S'CAO_00176'
p2040
sS'con_4df8fae1e5bec'
p2041
S'CAO_01100'
p2042
sS'cnt_4de6d066cb97a'
p2043
S'CAO_01311'
p2044
sS'trm_4a3fd79d0a1d1'
p2045
S'CAO_00283'
p2046
sS'trm_4da891a546d8c'
p2047
S'CAO_00962'
p2048
sS'trm_4dfa343fa1a36'
p2049
S'CAO_00693'
p2050
sS'trm_4d7fa1a3e2a10'
p2051
S'CAO_00685'
p2052
sS'cnt_4ebca22149619'
p2053
S'CAO_01816'
p2054
sS'con_4e664e057e8b3'
p2055
S'CAO_01711'
p2056
sS'con_4df298fddcc24'
p2057
S'CAO_01096'
p2058
sS'cnt_4dfbe08944a96'
p2059
S'CAO_01520'
p2060
sS'trm_4e5505361f160'
p2061
S'CAO_00691'
p2062
sS'trm_4a3fd79d0988f'
p2063
S'CAO_00135'
p2064
sS'cnt_4de6c8bbe6734'
p2065
S'CAO_01307'
p2066
sS'con_4e02368e6d12e'
p2067
S'CAO_01159'
p2068
sS'cnt_4df6974d8c674'
p2069
S'CAO_01435'
p2070
sS'trm_4a3fd79d0ae00'
p2071
S'CAO_00469'
p2072
sS'trm_4a3fd79d0b311'
p2073
S'CAO_00549'
p2074
sS'cnt_4de95d2ff1462'
p2075
S'CAO_01348'
p2076
sS'tsk_4a57abb949d17'
p2077
S'CAO_00852'
p2078
sS'trm_4a3fd79d09f36'
p2079
S'CAO_00242'
p2080
sS'cnt_4df10d2fb170f'
p2081
S'CAO_01385'
p2082
sS'trm_4a3fd79d0a6ad'
p2083
S'CAO_00359'
p2084
sS'tsk_4a57abb949934'
p2085
S'CAO_00810'
p2086
sS'trm_4a3fd79d0b44c'
p2087
S'CAO_00564'
p2088
sS'con_4e012e2269b4c'
p2089
S'CAO_01151'
p2090
sS'trm_4a3fd79d0a666'
p2091
S'CAO_00354'
p2092
sS'trm_4a3fd79d09b4b'
p2093
S'CAO_00177'
p2094
sS'trm_4f24572cb42e4'
p2095
S'CAO_01688'
p2096
sS'trm_4f244f0286947'
p2097
S'CAO_01676'
p2098
sS'trm_4c8a84825c4e4'
p2099
S'CAO_00782'
p2100
sS'con_4ebd43fca537f'
p2101
S'CAO_01743'
p2102
sS'con_4cacf41107509'
p2103
S'CAO_01016'
p2104
sS'con_4cacee7c2057a'
p2105
S'CAO_01013'
p2106
sS'cnt_4f41830a3d5a9'
p2107
S'CAO_01825'
p2108
sS'cnt_4ded60eb3a50f'
p2109
S'CAO_01373'
p2110
sS'trm_4a3fd79d0b2cb'
p2111
S'CAO_00546'
p2112
sS'trm_4a3fd79d0b689'
p2113
S'CAO_00603'
p2114
sS'tsk_4a57abb949abc'
p2115
S'CAO_00830'
p2116
sS'trm_4a3fd79d0a6a1'
p2117
S'CAO_00358'
p2118
sS'trm_4a3fd79d0a402'
p2119
S'CAO_00315'
p2120
sS'tsk_4a57abb949ae5'
p2121
S'CAO_00833'
p2122
sS'cnt_4e0104d85693b'
p2123
S'CAO_01562'
p2124
sS'cnt_4decff04d5cb5'
p2125
S'CAO_01354'
p2126
sS'trm_4f240edf92865'
p2127
S'CAO_01611'
p2128
sS'trm_4a3fd79d0a066'
p2129
S'CAO_00257'
p2130
sS'trm_4a3fd79d0af94'
p2131
S'CAO_00490'
p2132
sS'cnt_4c9974a44a920'
p2133
S'CAO_01248'
p2134
sS'cnt_4de67800c904a'
p2135
S'CAO_01282'
p2136
sS'cnt_4dff93d462d38'
p2137
S'CAO_01528'
p2138
sS'con_4ebd5a0be306a'
p2139
S'CAO_01766'
p2140
sS'trm_4a3fd79d09c34'
p2141
S'CAO_00192'
p2142
sS'cnt_4ebcaa463d20e'
p2143
S'CAO_01821'
p2144
sS'con_4e4170453dfb1'
p2145
S'CAO_01175'
p2146
sS'con_4de6c84f74297'
p2147
S'CAO_01056'
p2148
sS'trm_4a3fd79d0a533'
p2149
S'CAO_00337'
p2150
sS'trm_4a3fd79d0a246'
p2151
S'CAO_00291'
p2152
sS'cnt_4ebca8b8bb859'
p2153
S'CAO_01819'
p2154
sS'con_4e68e1280bb1b'
p2155
S'CAO_01713'
p2156
sS'cnt_4de674d6a85e6'
p2157
S'CAO_01279'
p2158
sS'cnt_4dfbd65810a40'
p2159
S'CAO_01518'
p2160
sS'cnt_4e03b8b959bc9'
p2161
S'CAO_01645'
p2162
sS'cnt_4de7d90024fe4'
p2163
S'CAO_01327'
p2164
sS'trm_4cacf3fbc503b'
p2165
S'CAO_00794'
p2166
sS'cnt_4e0113430ffad'
p2167
S'CAO_01569'
p2168
sS'con_4de6d45dd9ade'
p2169
S'CAO_01067'
p2170
sS'trm_4b749b8829eee'
p2171
S'CAO_00711'
p2172
sS'con_4e8a0f2605595'
p2173
S'CAO_01723'
p2174
sS'trm_4a3fd79d0a53f'
p2175
S'CAO_00338'
p2176
sS'cnt_4e664e2ed4231'
p2177
S'CAO_01805'
p2178
sS'trm_4a3fd79d0a08a'
p2179
S'CAO_00260'
p2180
sS'trm_4a3fd79d09c3f'
p2181
S'CAO_00193'
p2182
sS'tsk_4a57abb949bcd'
p2183
S'CAO_00844'
p2184
sS'trm_4a3fd79d0b9e9'
p2185
S'CAO_00657'
p2186
sS'cnt_4df9011fa1f5b'
p2187
S'CAO_01458'
p2188
sS'cnt_4be6ec7c08a71'
p2189
S'CAO_01243'
p2190
sS'trm_4da88a2a63d97'
p2191
S'CAO_00938'
p2192
sS'trm_4da88b17b985b'
p2193
S'CAO_00941'
p2194
sS'trm_4a3fd79d0b5e3'
p2195
S'CAO_00591'
p2196
sS'con_4d949c72f2589'
p2197
S'CAO_01019'
p2198
sS'trm_4f241fb95918f'
p2199
S'CAO_01644'
p2200
sS'tsk_4a57abb9498df'
p2201
S'CAO_00805'
p2202
sS'cnt_4df13aaa3f2be'
p2203
S'CAO_01393'
p2204
sS'trm_4a3fd79d0b5ef'
p2205
S'CAO_00592'
p2206
sS'trm_4ebfe9a465449'
p2207
S'CAO_01577'
p2208
sS'trm_4f33e65d0daac'
p2209
S'CAO_01579'
p2210
sS'trm_4a3fd79d0a02c'
p2211
S'CAO_00252'
p2212
sS'trm_4a3fd79d09de4'
p2213
S'CAO_00216'
p2214
sS'tsk_4a57abb949a33'
p2215
S'CAO_00820'
p2216
sS'con_4b7c0aa41ca2a'
p2217
S'CAO_00997'
p2218
sS'trm_4c898cb4ada49'
p2219
S'CAO_00743'
p2220
sS'cnt_4de6add395167'
p2221
S'CAO_01293'
p2222
sS'trm_4c899211a965c'
p2223
S'CAO_00766'
p2224
sS'cnt_4dfa93ee97bc8'
p2225
S'CAO_01499'
p2226
sS'trm_4da88bd4412da'
p2227
S'CAO_00946'
p2228
sS'cnt_4e08f54b8a426'
p2229
S'CAO_01654'
p2230
sS'cnt_4df2a4d2ecac9'
p2231
S'CAO_01421'
p2232
sS'con_4de6bfac7a76f'
p2233
S'CAO_01050'
p2234
sS'con_4ebd3d74160ea'
p2235
S'CAO_01733'
p2236
sS'cnt_4b7c108cc7a68'
p2237
S'CAO_01227'
p2238
sS'trm_4a3fd79d0b412'
p2239
S'CAO_00562'
p2240
sS'tsk_4a57abb949f21'
p2241
S'CAO_00888'
p2242
sS'trm_4a3fd79d0b87a'
p2243
S'CAO_00627'
p2244
sS'trm_4f24250e0137e'
p2245
S'CAO_01659'
p2246
sS'trm_4a3fd79d0b0c8'
p2247
S'CAO_00513'
p2248
sS'con_4de678e0271fa'
p2249
S'CAO_01041'
p2250
sS'cnt_4de6d45dd9ceb'
p2251
S'CAO_01318'
p2252
sS'trm_4ebd482eba5b1'
p2253
S'CAO_01605'
p2254
sS'trm_4a3fd79d09ae1'
p2255
S'CAO_00168'
p2256
sS'trm_4a3fd79d0a4ed'
p2257
S'CAO_00332'
p2258
sS'trm_4a3fd79d0a9c4'
p2259
S'CAO_00412'
p2260
sS'cnt_4e41708078f47'
p2261
S'CAO_01665'
p2262
sS'cnt_4ded129f8c996'
p2263
S'CAO_01358'
p2264
sS'tsk_4a57abb949f2f'
p2265
S'CAO_00889'
p2266
sS'trm_4b1968619b00b'
p2267
S'CAO_00707'
p2268
sS'con_4b4a54736e57a'
p2269
S'CAO_00984'
p2270
sS'trm_4a3fd79d09e35'
p2271
S'CAO_00223'
p2272
sS'tsk_4a57abb949e1a'
p2273
S'CAO_00871'
p2274
sS'cnt_4dffb9c632156'
p2275
S'CAO_01534'
p2276
sS'trm_4f2448d02d4d9'
p2277
S'CAO_01665'
p2278
sS'trm_4a3fd79d09741'
p2279
S'CAO_00110'
p2280
sS'trm_4a3fd79d0af4c'
p2281
S'CAO_00485'
p2282
sS'trm_4a3fd79d09aed'
p2283
S'CAO_00169'
p2284
sS'con_4ebd469d8a3c9'
p2285
S'CAO_01750'
p2286
sS'trm_4b6525253c63f'
p2287
S'CAO_00674'
p2288
sS'trm_4a3fd79d0a1e8'
p2289
S'CAO_00284'
p2290
sS'cnt_4be6ec6e29f57'
p2291
S'CAO_01242'
p2292
sS'trm_4a3fd79d0ad29'
p2293
S'CAO_00455'
p2294
sS'trm_4a3fd79d0a65a'
p2295
S'CAO_00353'
p2296
sS'trm_4a3fd79d0b306'
p2297
S'CAO_00548'
p2298
sS'trm_4d55a2bbcfdff'
p2299
S'CAO_00898'
p2300
sS'trm_4a3fd79d0ae17'
p2301
S'CAO_00470'
p2302
sS'tsk_4a57abb949d09'
p2303
S'CAO_00851'
p2304
sS'trm_4c898b29660b0'
p2305
S'CAO_00735'
p2306
sS'trm_4a3fd79d0b1c9'
p2307
S'CAO_00532'
p2308
sS'con_4de93e831be61'
p2309
S'CAO_01079'
p2310
sS'cnt_4e012662da2d7'
p2311
S'CAO_01578'
p2312
sS'cnt_4de6c62e9b5da'
p2313
S'CAO_01305'
p2314
sS'con_4df1143e308e6'
p2315
S'CAO_01089'
p2316
sS'trm_4a3fd79d0b279'
p2317
S'CAO_00539'
p2318
sS'cnt_4ded51930eba6'
p2319
S'CAO_01371'
p2320
sS'con_4dfb9a75a2ae8'
p2321
S'CAO_01110'
p2322
sS'trm_4a3fd79d09f2a'
p2323
S'CAO_00241'
p2324
sS'trm_4f24211a03b07'
p2325
S'CAO_01649'
p2326
sS'cnt_4e5fcfb15979e'
p2327
S'CAO_01798'
p2328
sS'trm_4a3fd79d0b826'
p2329
S'CAO_00622'
p2330
sS'cnt_4de7de54cdce7'
p2331
S'CAO_01332'
p2332
sS'con_4e01306ba8bb6'
p2333
S'CAO_01156'
p2334
sS'con_4ebc6aeadbf81'
p2335
S'CAO_01726'
p2336
sS'trm_4a3fd79d0b457'
p2337
S'CAO_00565'
p2338
sS'trm_4a3fd79d0a381'
p2339
S'CAO_00308'
p2340
sS'trm_4c40d168898db'
p2341
S'CAO_00724'
p2342
sS'trm_4da87fdd7820e'
p2343
S'CAO_00931'
p2344
sS'cnt_4dfbb16a6335e'
p2345
S'CAO_01513'
p2346
sS'cnt_4df13d6084e80'
p2347
S'CAO_01394'
p2348
sS'trm_4a3fd79d0b695'
p2349
S'CAO_00604'
p2350
sS'con_4de55b6707137'
p2351
S'CAO_01023'
p2352
sS'trm_4a3fd79d09a8f'
p2353
S'CAO_00161'
p2354
sS'trm_4da63146f12d7'
p2355
S'CAO_00904'
p2356
sS'cnt_4e03ae76b40ab'
p2357
S'CAO_01642'
p2358
sS'cnt_4dfbd9e47c418'
p2359
S'CAO_01519'
p2360
sS'trm_4a3fd79d0a43c'
p2361
S'CAO_00319'
p2362
sS'cnt_4e495e81b3a05'
p2363
S'CAO_01667'
p2364
sS'trm_4a3fd79d097bf'
p2365
S'CAO_00117'
p2366
sS'cnt_4dffd2399ebc0'
p2367
S'CAO_01544'
p2368
sS'tsk_4a57abb949bb1'
p2369
S'CAO_00842'
p2370
sS'cnt_4e6a4602d08c8'
p2371
S'CAO_01813'
p2372
sS'cnt_4df1585e55f60'
p2373
S'CAO_01396'
p2374
sS'trm_4a3fd79d0a504'
p2375
S'CAO_00334'
p2376
sS'trm_4a3fd79d0a431'
p2377
S'CAO_00318'
p2378
sS'trm_4f24258b51e2c'
p2379
S'CAO_01660'
p2380
sS'trm_4a3fd79d097b4'
p2381
S'CAO_00116'
p2382
sS'con_4e0125dc5b957'
p2383
S'CAO_01140'
p2384
sS'trm_4a3fd79d0b05e'
p2385
S'CAO_00504'
p2386
sS'trm_4f3a72a028d90'
p2387
S'CAO_01581'
p2388
sS'trm_4a3fd79d09a84'
p2389
S'CAO_00160'
p2390
sS'trm_4ee8facd77dfc'
p2391
S'CAO_01578'
p2392
sS'con_4ebc7658154a6'
p2393
S'CAO_01727'
p2394
sS'cnt_4e01131ba65a7'
p2395
S'CAO_01568'
p2396
sS'trm_4a3fd79d0b9d1'
p2397
S'CAO_00655'
p2398
sS'trm_4e31d69b7f422'
p2399
S'CAO_00968'
p2400
sS'cnt_4e31e4ff71f3c'
p2401
S'CAO_01663'
p2402
sS'cnt_4df67df7aaaea'
p2403
S'CAO_01428'
p2404
sS'cnt_4e496d0e46a77'
p2405
S'CAO_01668'
p2406
sS'con_4b7c0a332773f'
p2407
S'CAO_00996'
p2408
sS'trm_4da6338803ed2'
p2409
S'CAO_00910'
p2410
sS'trm_4a3fd79d0b5d7'
p2411
S'CAO_00590'
p2412
sS'cnt_4dee551d3a46b'
p2413
S'CAO_01377'
p2414
sS'con_4e5e7bef29b14'
p2415
S'CAO_01697'
p2416
sS'trm_4f33e751d7721'
p2417
S'CAO_01580'
p2418
sS'trm_4c89922cb6402'
p2419
S'CAO_00767'
p2420
sS'trm_4a3fd79d09b9c'
p2421
S'CAO_00181'
p2422
sS'trm_4c898a680e424'
p2423
S'CAO_00731'
p2424
sS'cnt_4e03951a4914c'
p2425
S'CAO_01639'
p2426
sS'trm_4a3fd79d0b9dd'
p2427
S'CAO_00656'
p2428
sS'con_4e5fce1e14d37'
p2429
S'CAO_01700'
p2430
sS'trm_4a3fd79d09dd9'
p2431
S'CAO_00215'
p2432
sS'con_4ebd6ca71ac1f'
p2433
S'CAO_01779'
p2434
sS'con_4e012f7ba03d0'
p2435
S'CAO_01153'
p2436
sS'trm_4a3fd79d09abe'
p2437
S'CAO_00165'
p2438
sS'con_4b4a5f854160f'
p2439
S'CAO_00988'
p2440
sS'trm_4a3fd79d0a937'
p2441
S'CAO_00401'
p2442
sS'cnt_4e01302681cd3'
p2443
S'CAO_01592'
p2444
sS'cnt_4dee50b24d8c4'
p2445
S'CAO_01374'
p2446
sS'trm_4a3fd79d09d35'
p2447
S'CAO_00203'
p2448
sS'tsk_4a57abb9498ce'
p2449
S'CAO_00804'
p2450
sS'con_4e5fcf4da0d3e'
p2451
S'CAO_01704'
p2452
sS'trm_4e5badf095692'
p2453
S'CAO_00703'
p2454
sS'con_4dffd3273ef33'
p2455
S'CAO_01130'
p2456
sS'trm_4a3fd79d09ab2'
p2457
S'CAO_00164'
p2458
sS'cnt_4b44a5321112e'
p2459
S'CAO_01203'
p2460
sS'trm_4a3fd79d0b7f4'
p2461
S'CAO_00618'
p2462
sS'trm_4f2457a8b0bc8'
p2463
S'CAO_01690'
p2464
sS'trm_4a3fd79d0aa6a'
p2465
S'CAO_00422'
p2466
sS'trm_4c898b02722d2'
p2467
S'CAO_00734'
p2468
sS'trm_4a3fd79d09e07'
p2469
S'CAO_00219'
p2470
sS'trm_4ebc6a6b75ebf'
p2471
S'CAO_01598'
p2472
sS'con_4c6b5fd5be8b2'
p2473
S'CAO_01009'
p2474
sS'cnt_4df8fc0a76f53'
p2475
S'CAO_01456'
p2476
sS'trm_4a3fd79d09f1e'
p2477
S'CAO_00240'
p2478
sS'cnt_4e08edac14ee7'
p2479
S'CAO_01652'
p2480
sS'trm_4f241be43458e'
p2481
S'CAO_01637'
p2482
sS'trm_4a3fd79d0b1bd'
p2483
S'CAO_00531'
p2484
sS'cnt_4dfa36c40f3a1'
p2485
S'CAO_01469'
p2486
sS'trm_4a3fd79d09758'
p2487
S'CAO_00112'
p2488
sS'tsk_4a57abb949879'
p2489
S'CAO_00799'
p2490
sS'trm_4a3fd79d0a1b9'
p2491
S'CAO_00281'
p2492
sS'con_4de6d1194328b'
p2493
S'CAO_01063'
p2494
sS'trm_4da86b539924c'
p2495
S'CAO_00917'
p2496
sS'trm_4a3fd79d0aa81'
p2497
S'CAO_00424'
p2498
sS'trm_4a3fd79d0974d'
p2499
S'CAO_00111'
p2500
sS'trm_4a3fd79d09f12'
p2501
S'CAO_00239'
p2502
sS'cnt_4df8fae1e604a'
p2503
S'CAO_01453'
p2504
sS'con_4e5fcdd5bc764'
p2505
S'CAO_01699'
p2506
sS'trm_4a3fd79d098a6'
p2507
S'CAO_00137'
p2508
sS'cnt_4dffb78e1edc6'
p2509
S'CAO_01533'
p2510
sS'trm_4a3fd79d0b84a'
p2511
S'CAO_00625'
p2512
sS'trm_4c898fad429ed'
p2513
S'CAO_00748'
p2514
sS'cnt_4ded2bceeda6b'
p2515
S'CAO_01363'
p2516
sS'trm_4a3fd79d0ae64'
p2517
S'CAO_00474'
p2518
sS'trm_4f244a67d5b17'
p2519
S'CAO_01670'
p2520
sS'trm_4a3fd79d0b996'
p2521
S'CAO_00650'
p2522
sS'trm_4a3fd79d0ab93'
p2523
S'CAO_00439'
p2524
sS'trm_4a3fd79d0aa8d'
p2525
S'CAO_00425'
p2526
sS'trm_4a3fd79d0b1b2'
p2527
S'CAO_00530'
p2528
sS'con_4df2609cea616'
p2529
S'CAO_01091'
p2530
sS'tsk_4a57abb949d76'
p2531
S'CAO_00859'
p2532
sS'trm_4c898c8bf1b4f'
p2533
S'CAO_00742'
p2534
sS'cnt_4e08fdee5aec9'
p2535
S'CAO_01659'
p2536
sS'cnt_4df92bccc5ae1'
p2537
S'CAO_01465'
p2538
sS'cnt_4b82d27f31194'
p2539
S'CAO_01230'
p2540
sS'trm_4a3fd79d0b64e'
p2541
S'CAO_00598'
p2542
sS'trm_4dadbe225bdf1'
p2543
S'CAO_00965'
p2544
sS'cnt_4e038e90bd3e7'
p2545
S'CAO_01638'
p2546
sS'tsk_4a57abb949b46'
p2547
S'CAO_00840'
p2548
sS'trm_4a3fd79d0ac61'
p2549
S'CAO_00447'
p2550
sS'cnt_4df108c45e041'
p2551
S'CAO_01383'
p2552
sS'cnt_4dffd0991b237'
p2553
S'CAO_01539'
p2554
sS'cnt_4dffdbd8c48f7'
p2555
S'CAO_01551'
p2556
sS'con_4ebd4046e2ef7'
p2557
S'CAO_01735'
p2558
sS'cnt_4e495afedc2df'
p2559
S'CAO_01666'
p2560
sS'con_4de56f49c241c'
p2561
S'CAO_01025'
p2562
sS'trm_4a3fd79d0a64e'
p2563
S'CAO_00352'
p2564
sS'con_4df8e1f29aef3'
p2565
S'CAO_01097'
p2566
sS'cnt_4df2a238dd66b'
p2567
S'CAO_01417'
p2568
sS'cnt_4df26137bc72d'
p2569
S'CAO_01401'
p2570
sS'trm_4a3fd79d0b429'
p2571
S'CAO_00563'
p2572
sS'trm_4e6a2f61b17b0'
p2573
S'CAO_01592'
p2574
sS'cnt_4df298c596941'
p2575
S'CAO_01411'
p2576
sS'cnt_4b4a609f11b96'
p2577
S'CAO_01215'
p2578
sS'con_4b7c101e99f7e'
p2579
S'CAO_00998'
p2580
sS'cnt_4de963f853b03'
p2581
S'CAO_01350'
p2582
sS'cnt_4decff6567821'
p2583
S'CAO_01355'
p2584
sS'tsk_4a57abb949e0c'
p2585
S'CAO_00870'
p2586
sS'trm_4c8a840d6f969'
p2587
S'CAO_00778'
p2588
sS'con_4b4a51d944c3e'
p2589
S'CAO_00981'
p2590
sS'cnt_4b44a4d544ee7'
p2591
S'CAO_01201'
p2592
sS'con_4de93e2a139bb'
p2593
S'CAO_01078'
p2594
sS'cnt_4dfa3bb649f8a'
p2595
S'CAO_01470'
p2596
sS'trm_4da87e439c411'
p2597
S'CAO_00925'
p2598
sS'cnt_4e011301aee39'
p2599
S'CAO_01567'
p2600
sS'cnt_4df28c7e2f855'
p2601
S'CAO_01407'
p2602
sS'trm_4a3fd79d0a510'
p2603
S'CAO_00335'
p2604
sS'trm_4a3fd79d0a35e'
p2605
S'CAO_00305'
p2606
sS'trm_4a3fd79d0a0ad'
p2607
S'CAO_00263'
p2608
sS'con_4de6d03ae6527'
p2609
S'CAO_01060'
p2610
sS'trm_4a3fd79d0a425'
p2611
S'CAO_00317'
p2612
sS'trm_4f241c735e7f6'
p2613
S'CAO_01639'
p2614
sS'trm_4c898c33ee5f8'
p2615
S'CAO_00741'
p2616
sS'trm_4f24135453d65'
p2617
S'CAO_01622'
p2618
sS'con_4e8a0f0c33eb1'
p2619
S'CAO_01722'
p2620
sS'cnt_4bd1ec505dd14'
p2621
S'CAO_01236'
p2622
sS'cnt_4df114130545a'
p2623
S'CAO_01387'
p2624
sS'trm_4da88c904862b'
p2625
S'CAO_00950'
p2626
sS'con_4ded129f8c792'
p2627
S'CAO_01083'
p2628
sS'trm_4da891794859f'
p2629
S'CAO_00961'
p2630
sS'con_4ebd3eeacf977'
p2631
S'CAO_01730'
p2632
sS'trm_4a3fd79d0a0a1'
p2633
S'CAO_00262'
p2634
sS'cnt_4df914f00dd42'
p2635
S'CAO_01460'
p2636
sS'cnt_4deeb0951bd72'
p2637
S'CAO_01381'
p2638
sS'trm_4a3fd79d0a352'
p2639
S'CAO_00304'
p2640
sS'trm_4a3fd79d09c5b'
p2641
S'CAO_00194'
p2642
sS'trm_4e664d3718e1b'
p2643
S'CAO_01590'
p2644
sS'cnt_4e02368e6d840'
p2645
S'CAO_01605'
p2646
sS'cnt_4ded127195273'
p2647
S'CAO_01357'
p2648
sS'trm_4c3e0add96550'
p2649
S'CAO_00722'
p2650
sS'trm_4a3fd79d09a9b'
p2651
S'CAO_00162'
p2652
sS'cnt_4e02713a45cdc'
p2653
S'CAO_01629'
p2654
sS'trm_4a3fd79d09b85'
p2655
S'CAO_00180'
p2656
sS'tsk_4a57abb9499d5'
p2657
S'CAO_00814'
p2658
sS'trm_4a3fd79d097cb'
p2659
S'CAO_00118'
p2660
sS'con_4e023b95e4eb1'
p2661
S'CAO_01161'
p2662
sS'cnt_4de69a61a2545'
p2663
S'CAO_01287'
p2664
sS'cnt_4dfbaf2722de5'
p2665
S'CAO_01511'
p2666
sS'cnt_4e08ed0d8815f'
p2667
S'CAO_01649'
p2668
sS'trm_4e31d2241319f'
p2669
S'CAO_00695'
p2670
sS'cnt_4b8436e073769'
p2671
S'CAO_01233'
p2672
sS'trm_4da890a9bd7a3'
p2673
S'CAO_00956'
p2674
sS'cnt_4e03b6ae397cc'
p2675
S'CAO_01644'
p2676
sS'con_4ebd8e2098713'
p2677
S'CAO_01786'
p2678
sS'trm_4e5506161998c'
p2679
S'CAO_00702'
p2680
sS'cnt_4de948beb7f3c'
p2681
S'CAO_01347'
p2682
sS'tsk_4a57abb9498bc'
p2683
S'CAO_00803'
p2684
sS'con_4ebd6dbecfcad'
p2685
S'CAO_01781'
p2686
sS'cnt_4de5785aaade9'
p2687
S'CAO_01268'
p2688
sS'trm_4a3fd79d0b6a1'
p2689
S'CAO_00605'
p2690
sS'cnt_4de91ce5f279a'
p2691
S'CAO_01338'
p2692
sS'trm_4f244f997615c'
p2693
S'CAO_01678'
p2694
sS'cnt_4dffdbbb010e1'
p2695
S'CAO_01550'
p2696
sS'trm_4e5fcd75efb58'
p2697
S'CAO_01587'
p2698
sS'cnt_4dee5f41244cc'
p2699
S'CAO_01379'
p2700
sS'trm_4a3fd79d0b6ad'
p2701
S'CAO_00606'
p2702
sS'cnt_4de7c5df194ea'
p2703
S'CAO_01321'
p2704
sS'con_4b7c03351da6c'
p2705
S'CAO_00992'
p2706
sS'cnt_4de6c9842dbbe'
p2707
S'CAO_01309'
p2708
sS'cnt_4b44a4f353f68'
p2709
S'CAO_01202'
p2710
sS'con_4b4a538ded442'
p2711
S'CAO_00982'
p2712
sS'trm_4a3fd79d09bcb'
p2713
S'CAO_00184'
p2714
sS'cnt_4b7c03351fc78'
p2715
S'CAO_01219'
p2716
sS'cnt_4b4a5473705db'
p2717
S'CAO_01209'
p2718
sS'trm_4a3fd79d09e1e'
p2719
S'CAO_00221'
p2720
sS'cnt_4dfa42dddd062'
p2721
S'CAO_01476'
p2722
sS'cnt_4e08f5aa73703'
p2723
S'CAO_01657'
p2724
sS'trm_4a3fd79d09d29'
p2725
S'CAO_00202'
p2726
sS'cnt_4df133b48842d'
p2727
S'CAO_01392'
p2728
sS'trm_4a3fd79d0a9ad'
p2729
S'CAO_00410'
p2730
sS'trm_4a3fd79d0a448'
p2731
S'CAO_00320'
p2732
sS'cnt_4b4a53b3e9525'
p2733
S'CAO_01208'
p2734
sS'cnt_4b82d26b480ea'
p2735
S'CAO_01229'
p2736
sS'con_4b7c108cc5daf'
p2737
S'CAO_01000'
p2738
sS'trm_4a3fd79d0b0a6'
p2739
S'CAO_00510'
p2740
sS'trm_4f244d2a54e27'
p2741
S'CAO_01674'
p2742
sS'tsk_4a57abb949f4a'
p2743
S'CAO_00891'
p2744
sS'tsk_4a57abb949dc8'
p2745
S'CAO_00865'
p2746
sS'con_4de6c945844e4'
p2747
S'CAO_01058'
p2748
sS'trm_4a3fd79d0a9a1'
p2749
S'CAO_00409'
p2750
sS'trm_4a3fd79d09e13'
p2751
S'CAO_00220'
p2752
sS'cnt_4df68cac967cc'
p2753
S'CAO_01434'
p2754
sS'trm_4da86ad02b3ea'
p2755
S'CAO_00916'
p2756
sS'cnt_4b4a5f85437c2'
p2757
S'CAO_01214'
p2758
sS'con_4e5d0827085a2'
p2759
S'CAO_01195'
p2760
sS'trm_4a3fd79d09764'
p2761
S'CAO_00113'
p2762
sS'trm_4c8989e1f3df7'
p2763
S'CAO_00729'
p2764
sS'trm_4a3fd79d09aca'
p2765
S'CAO_00166'
p2766
sS'con_4ebd59ee5e939'
p2767
S'CAO_01765'
p2768
sS'trm_4a3fd79d0aa99'
p2769
S'CAO_00426'
p2770
sS'cnt_4dfba830d0974'
p2771
S'CAO_01506'
p2772
sS'con_4dfa71f0c9afd'
p2773
S'CAO_01105'
p2774
sS'cnt_4dee7fcd869e8'
p2775
S'CAO_01380'
p2776
sS'trm_4a3fd79d0a1c5'
p2777
S'CAO_00282'
p2778
sS'cnt_4dfb9af098602'
p2779
S'CAO_01504'
p2780
sS'trm_4e6a44ee854f8'
p2781
S'CAO_01593'
p2782
sS'trm_4a3fd79d09f07'
p2783
S'CAO_00238'
p2784
sS'con_4e038e680b751'
p2785
S'CAO_01165'
p2786
sS'cnt_4de6bfac7a994'
p2787
S'CAO_01298'
p2788
sS'trm_4a3fd79d0aa76'
p2789
S'CAO_00423'
p2790
sS'cnt_4e0104905eaa1'
p2791
S'CAO_01561'
p2792
sS'cnt_4df8e8f10f33a'
p2793
S'CAO_01449'
p2794
sS'con_4e0236b24758c'
p2795
S'CAO_01160'
p2796
sS'trm_4a3fd79d0b18f'
p2797
S'CAO_00527'
p2798
sS'trm_4f2417d4a63ae'
p2799
S'CAO_01628'
p2800
sS'cnt_4df9015bcfad3'
p2801
S'CAO_01459'
p2802
sS'cnt_4dfa46d8c1622'
p2803
S'CAO_01477'
p2804
sS'trm_4c898a8fd3afb'
p2805
S'CAO_00732'
p2806
sS'trm_4a3fd79d0ae70'
p2807
S'CAO_00475'
p2808
sS'tsk_4a57abb949cfb'
p2809
S'CAO_00850'
p2810
sS'cnt_4ded4b7c49083'
p2811
S'CAO_01368'
p2812
sS'trm_4a3fd79d0ac7a'
p2813
S'CAO_00448'
p2814
sS'tsk_4a57abb949d69'
p2815
S'CAO_00858'
p2816
sS'trm_4a3fd79d0ab88'
p2817
S'CAO_00438'
p2818
sS'tsk_4a57abb94989b'
p2819
S'CAO_00801'
p2820
sS'cnt_4ded542c8c4f8'
p2821
S'CAO_01372'
p2822
sS'trm_4c8a858da803d'
p2823
S'CAO_00789'
p2824
sS'trm_4a3fd79d0a95a'
p2825
S'CAO_00404'
p2826
sS'cnt_4de57f7db9e97'
p2827
S'CAO_01271'
p2828
sS'trm_4da886fc2bc46'
p2829
S'CAO_00935'
p2830
sS'trm_4f2456932f11b'
p2831
S'CAO_01687'
p2832
sS'trm_4c898b8c2d071'
p2833
S'CAO_00737'
p2834
sS'trm_4c8a842512a33'
p2835
S'CAO_00779'
p2836
sS'trm_4a3fd79d0ade8'
p2837
S'CAO_00467'
p2838
sS'con_4dffd1dbec2a2'
p2839
S'CAO_01126'
p2840
sS'trm_4a3fd79d0b507'
p2841
S'CAO_00577'
p2842
sS'cnt_4dff8003a6b0a'
p2843
S'CAO_01522'
p2844
sS'con_4be6ec0cf3081'
p2845
S'CAO_01007'
p2846
sS'trm_4a3fd79d0ae7b'
p2847
S'CAO_00476'
p2848
sS'trm_4a3fd79d0b98a'
p2849
S'CAO_00649'
p2850
sS'cnt_4b4a538defadc'
p2851
S'CAO_01207'
p2852
sS'trm_4a3fd79d0a56e'
p2853
S'CAO_00342'
p2854
sS'cnt_4dfb9ab8d70ce'
p2855
S'CAO_01503'
p2856
sS'trm_4eb1f3a8ec119'
p2857
S'CAO_01597'
p2858
sS'con_4e495acbd916c'
p2859
S'CAO_01176'
p2860
sS'trm_4f245326e2eaf'
p2861
S'CAO_01681'
p2862
sS'con_4ebd5af004f7e'
p2863
S'CAO_01772'
p2864
sS'trm_4a3fd79d0a746'
p2865
S'CAO_00371'
p2866
sS'con_4dfba87cdac32'
p2867
S'CAO_01113'
p2868
sS'cnt_4de90fe2177d0'
p2869
S'CAO_01335'
p2870
sS'trm_4a3fd79d0a637'
p2871
S'CAO_00350'
p2872
sS'trm_4f2456027809f'
p2873
S'CAO_01686'
p2874
sS'trm_4a3fd79d0a989'
p2875
S'CAO_00407'
p2876
sS'cnt_4de96cd8c9aad'
p2877
S'CAO_01352'
p2878
sS'con_4be6ebc7bf079'
p2879
S'CAO_01006'
p2880
sS'trm_4a3fd79d0a18b'
p2881
S'CAO_00277'
p2882
sS'trm_4a3fd79d09c69'
p2883
S'CAO_00195'
p2884
sS'trm_4da88c5302e06'
p2885
S'CAO_00949'
p2886
sS'con_4e011afe30329'
p2887
S'CAO_01138'
p2888
sS'cnt_4b65e60a2f37a'
p2889
S'CAO_01216'
p2890
sS'cnt_4de6d03ae67ac'
p2891
S'CAO_01310'
p2892
sS'trm_4a3fd79d0a562'
p2893
S'CAO_00341'
p2894
sS'trm_4f24226fa2903'
p2895
S'CAO_01653'
p2896
sS'cnt_4e023794e822b'
p2897
S'CAO_01607'
p2898
sS'cnt_4de6d2747197f'
p2899
S'CAO_01315'
p2900
sS'con_4de584598a7df'
p2901
S'CAO_01030'
p2902
sS'trm_4a3fd79d09a61'
p2903
S'CAO_00157'
p2904
sS'trm_4da63357e4999'
p2905
S'CAO_00909'
p2906
sS'trm_4a3fd79d0a168'
p2907
S'CAO_00274'
p2908
sS'trm_4a3fd79d0b5fb'
p2909
S'CAO_00593'
p2910
sS'cnt_4de6b87a44743'
p2911
S'CAO_01297'
p2912
sS'trm_4a3fd79d0b3fa'
p2913
S'CAO_00560'
p2914
sS'cnt_4e012fc0a6d05'
p2915
S'CAO_01591'
p2916
sS'trm_4a3fd79d0b37a'
p2917
S'CAO_00554'
p2918
sS'trm_4a3fd79d09c8c'
p2919
S'CAO_00198'
p2920
sS'trm_4a3fd79d0b9f5'
p2921
S'CAO_00658'
p2922
sS'trm_4a3fd79d09bbf'
p2923
S'CAO_00183'
p2924
sS'cnt_4e08fb9717d43'
p2925
S'CAO_01658'
p2926
sS'trm_4a3fd79d0a36a'
p2927
S'CAO_00306'
p2928
sS'con_4e6a45d9eae6d'
p2929
S'CAO_01721'
p2930
sS'trm_4b45f56827e93'
p2931
S'CAO_00673'
p2932
sS'trm_4a3fd79d09c80'
p2933
S'CAO_00197'
p2934
sS'cnt_4df6818a8bcec'
p2935
S'CAO_01429'
p2936
sS'cnt_4e038ba42d3a7'
p2937
S'CAO_01636'
p2938
sS'con_4be6ec2f7f42c'
p2939
S'CAO_01008'
p2940
sS'con_4e01302681ad2'
p2941
S'CAO_01155'
p2942
sS'cnt_4ded518b33a0b'
p2943
S'CAO_01370'
p2944
sS'trm_4a3fd79d0b6b9'
p2945
S'CAO_00607'
p2946
sS'con_4ebd6c63c9327'
p2947
S'CAO_01778'
p2948
sS'cnt_4dfa94d49dc90'
p2949
S'CAO_01500'
p2950
sS'cnt_4ebca9e1d3a16'
p2951
S'CAO_01820'
p2952
sS'trm_4a3fd79d0a7b0'
p2953
S'CAO_00376'
p2954
sS'trm_4c3e0646a2408'
p2955
S'CAO_00682'
p2956
sS'tsk_4a57abb9499e3'
p2957
S'CAO_00815'
p2958
sS'cnt_4df69c7742c35'
p2959
S'CAO_01439'
p2960
sS'trm_4f242172aea5d'
p2961
S'CAO_01650'
p2962
sS'trm_4f24247912761'
p2963
S'CAO_01656'
p2964
sS'trm_4a3fd79d09dfc'
p2965
S'CAO_00218'
p2966
sS'cnt_4de92b983089e'
p2967
S'CAO_01341'
p2968
sS'con_4de671af5ac83'
p2969
S'CAO_01032'
p2970
sS'con_4ebd69416a180'
p2971
S'CAO_01776'
p2972
sS'trm_4a3fd79d0a7bb'
p2973
S'CAO_00377'
p2974
sS'cnt_4df2a4307daec'
p2975
S'CAO_01419'
p2976
sS'tsk_4a57abb9498ab'
p2977
S'CAO_00802'
p2978
sS'tsk_4a57abb949f04'
p2979
S'CAO_00886'
p2980
sS'con_4ded2ba5e3333'
p2981
S'CAO_01084'
p2982
sS'trm_4da890f978492'
p2983
S'CAO_00958'
p2984
sS'trm_4a3fd79d09df0'
p2985
S'CAO_00217'
p2986
sS'trm_4c8991fadfe01'
p2987
S'CAO_00765'
p2988
sS'trm_4a3fd79d0b0f7'
p2989
S'CAO_00517'
p2990
sS'cnt_4e6a34f8c2f2c'
p2991
S'CAO_01811'
p2992
sS'trm_4da634216ebbc'
p2993
S'CAO_00913'
p2994
sS'con_4e012722ee912'
p2995
S'CAO_01148'
p2996
sS'trm_4c89903149aeb'
p2997
S'CAO_00752'
p2998
sS'con_4ebd4851b94e8'
p2999
S'CAO_01753'
p3000
sS'trm_4a3fd79d09e64'
p3001
S'CAO_00225'
p3002
sS'trm_4a3fd79d0a4f9'
p3003
S'CAO_00333'
p3004
sS'trm_4a3fd79d09770'
p3005
S'CAO_00114'
p3006
sS'trm_4f240cb09f8e5'
p3007
S'CAO_01607'
p3008
sS'cnt_4e0126b9ec56b'
p3009
S'CAO_01580'
p3010
sS'con_4dff8003a65ab'
p3011
S'CAO_01117'
p3012
sS'trm_4f241ee9c4e37'
p3013
S'CAO_01643'
p3014
sS'tsk_4a57abb949a85'
p3015
S'CAO_00826'
p3016
sS'trm_4c8990810541d'
p3017
S'CAO_00754'
p3018
sS'trm_4a3fd79d09e6f'
p3019
S'CAO_00226'
p3020
sS'trm_4a3fd79d098c9'
p3021
S'CAO_00140'
p3022
sS'cnt_4e01306ba8db6'
p3023
S'CAO_01593'
p3024
sS'trm_4a3fd79d0aa47'
p3025
S'CAO_00420'
p3026
sS'tsk_4a57abb949b1c'
p3027
S'CAO_00837'
p3028
sS'trm_4a3fd79d0b914'
p3029
S'CAO_00639'
p3030
sS'trm_4a3fd79d0acc1'
p3031
S'CAO_00452'
p3032
sS'cnt_4df8e2af408ed'
p3033
S'CAO_01448'
p3034
sS'trm_4c8990f59266f'
p3035
S'CAO_00759'
p3036
sS'trm_4f2447fe67fb9'
p3037
S'CAO_01663'
p3038
sS'trm_4a3fd79d0977b'
p3039
S'CAO_00115'
p3040
sS'con_4b44a4f3505bb'
p3041
S'CAO_00977'
p3042
sS'trm_4c8990e187dc7'
p3043
S'CAO_00758'
p3044
sS'cnt_4df928c85f523'
p3045
S'CAO_01464'
p3046
sS'trm_4a3fd79d0af66'
p3047
S'CAO_00487'
p3048
sS'cnt_4de7b92a0ce43'
p3049
S'CAO_01319'
p3050
sS'con_4dffd35b0ffab'
p3051
S'CAO_01131'
p3052
sS'cnt_4df29910c149e'
p3053
S'CAO_01413'
p3054
sS'cnt_4df29978d4002'
p3055
S'CAO_01414'
p3056
sS'trm_4a3fd79d0b530'
p3057
S'CAO_00578'
p3058
sS'cnt_4b4a5f651765d'
p3059
S'CAO_01213'
p3060
sS'tsk_4a57abb949889'
p3061
S'CAO_00800'
p3062
sS'con_4e010b0c96ff9'
p3063
S'CAO_01133'
p3064
sS'trm_4c898bbab4fd4'
p3065
S'CAO_00738'
p3066
sS'trm_4a3fd79d0ac87'
p3067
S'CAO_00449'
p3068
sS'tsk_4a57abb949e27'
p3069
S'CAO_00872'
p3070
sS'con_4de929f983464'
p3071
S'CAO_01075'
p3072
sS'trm_4a3fd79d0a62b'
p3073
S'CAO_00349'
p3074
sS'trm_4a3fd79d0b08f'
p3075
S'CAO_00508'
p3076
sS'con_4ebd3c8329fd8'
p3077
S'CAO_01731'
p3078
sS'trm_4a3fd79d0addc'
p3079
S'CAO_00466'
p3080
sS'con_4de93d28647c8'
p3081
S'CAO_01076'
p3082
sS'con_4ebd43333ae4d'
p3083
S'CAO_01741'
p3084
sS'con_4dfa891db4ac6'
p3085
S'CAO_01108'
p3086
sS'trm_4a3fd79d0b154'
p3087
S'CAO_00524'
p3088
sS'trm_4f241c0737cc0'
p3089
S'CAO_01638'
p3090
sS'trm_4a3fd79d0a995'
p3091
S'CAO_00408'
p3092
sS'cnt_4df938dc89175'
p3093
S'CAO_01466'
p3094
sS'cnt_4dffd4ed38b03'
p3095
S'CAO_01549'
p3096
sS'trm_4a3fd79d0b083'
p3097
S'CAO_00507'
p3098
sS'tsk_4a57abb949bbf'
p3099
S'CAO_00843'
p3100
sS'trm_4d920c905d465'
p3101
S'CAO_00690'
p3102
sS'cnt_4e012702f0951'
p3103
S'CAO_01582'
p3104
sS'con_4edcf401c4af4'
p3105
S'CAO_01790'
p3106
sS'trm_4da890594742a'
p3107
S'CAO_00953'
p3108
sS'con_4e0130c9799c6'
p3109
S'CAO_01158'
p3110
sS'con_4ebd457616acf'
p3111
S'CAO_01746'
p3112
sS'trm_4af89b3a925ca'
p3113
S'CAO_00706'
p3114
sS'trm_4a3fd79d09c74'
p3115
S'CAO_00196'
p3116
sS'trm_4a3fd79d0a8ed'
p3117
S'CAO_00395'
p3118
sS'cnt_4e025467f28e7'
p3119
S'CAO_01617'
p3120
sS'trm_4da87f81bc2c8'
p3121
S'CAO_00929'
p3122
sS'trm_4a3fd79d0a17f'
p3123
S'CAO_00276'
p3124
sS'trm_4a3fd79d0a579'
p3125
S'CAO_00343'
p3126
sS'tsk_4a57abb9499ff'
p3127
S'CAO_00817'
p3128
sS'cnt_4c9975fc3078c'
p3129
S'CAO_01249'
p3130
sS'tsk_4a57abb949aa1'
p3131
S'CAO_00828'
p3132
sS'tsk_4a57abb949af3'
p3133
S'CAO_00834'
p3134
sS'trm_4a3fd79d0a196'
p3135
S'CAO_00278'
p3136
sS'con_4b65e60a2cd66'
p3137
S'CAO_00989'
p3138
sS'cnt_4de671e75974e'
p3139
S'CAO_01277'
p3140
sS'trm_4a3fd79d0a28c'
p3141
S'CAO_00297'
p3142
sS'trm_4a3fd79d0aff2'
p3143
S'CAO_00497'
p3144
sS'cnt_4b7c0aa41e7a4'
p3145
S'CAO_01224'
p3146
sS'trm_4c8991e6e8597'
p3147
S'CAO_00764'
p3148
sS'trm_4a3fd79d0a173'
p3149
S'CAO_00275'
p3150
sS'cnt_4dfa3ef2bcbf0'
p3151
S'CAO_01473'
p3152
sS'trm_4a3fd79d0a375'
p3153
S'CAO_00307'
p3154
sS'cnt_4be6ec2f802fb'
p3155
S'CAO_01240'
p3156
sS'cnt_4e022d7430161'
p3157
S'CAO_01602'
p3158
sS'trm_4f2412d4c3b88'
p3159
S'CAO_01620'
p3160
sS'trm_4a3fd79d0a281'
p3161
S'CAO_00296'
p3162
sS'trm_4a3fd79d0affd'
p3163
S'CAO_00498'
p3164
sS'cnt_4de6d0d5790a3'
p3165
S'CAO_01312'
p3166
sS'tsk_4a57abb949aae'
p3167
S'CAO_00829'
p3168
sS'trm_4a3fd79d0b9a1'
p3169
S'CAO_00651'
p3170
sS'trm_4d559bcd67c18'
p3171
S'CAO_00896'
p3172
sS'tsk_4a57abb9499f1'
p3173
S'CAO_00816'
p3174
sS'cnt_4e5e7c5149eec'
p3175
S'CAO_01797'
p3176
sS'trm_4ebd44cd88360'
p3177
S'CAO_01602'
p3178
sS'con_4dfa6b1c620a6'
p3179
S'CAO_01104'
p3180
sS'con_4ebd5ae179420'
p3181
S'CAO_01771'
p3182
sS'trm_4e31ced566649'
p3183
S'CAO_00694'
p3184
sS'trm_4da87f383435b'
p3185
S'CAO_00928'
p3186
sS'trm_4da8911e715e3'
p3187
S'CAO_00959'
p3188
sS'con_4de6c02033068'
p3189
S'CAO_01053'
p3190
sS'trm_4a3fd79d09c97'
p3191
S'CAO_00199'
p3192
sS'cnt_4df91dc172a88'
p3193
S'CAO_01462'
p3194
sS'con_4cacf4680a5e0'
p3195
S'CAO_01018'
p3196
sS'trm_4a3fd79d0b6c5'
p3197
S'CAO_00608'
p3198
sS'cnt_4dffd0f56b850'
p3199
S'CAO_01540'
p3200
sS'con_4ebd488f5a316'
p3201
S'CAO_01755'
p3202
sS'cnt_4dfa6bad0c724'
p3203
S'CAO_01482'
p3204
sS'con_4e012662da0cf'
p3205
S'CAO_01143'
p3206
sS'trm_4a3fd79d0b3ef'
p3207
S'CAO_00559'
p3208
sS'trm_4a3fd79d0a7c7'
p3209
S'CAO_00378'
p3210
sS'trm_4c8a83f27ac55'
p3211
S'CAO_00777'
p3212
sS'cnt_4dffd2bac8005'
p3213
S'CAO_01546'
p3214
sS'cnt_4dffd1dbec4b1'
p3215
S'CAO_01543'
p3216
sS'cnt_4de6b5d032f89'
p3217
S'CAO_01295'
p3218
sS'con_4e08ed6a4cedb'
p3219
S'CAO_01167'
p3220
sS'con_4ebd51abcad7e'
p3221
S'CAO_01758'
p3222
sS'cnt_4de7d90ca34da'
p3223
S'CAO_01328'
p3224
sS'con_4de6a2f38a3dd'
p3225
S'CAO_01044'
p3226
sS'trm_4a3fd79d09e7b'
p3227
S'CAO_00227'
p3228
sS'trm_4d54b8361e93e'
p3229
S'CAO_00894'
p3230
sS'con_4ebd4262dc8f7'
p3231
S'CAO_01740'
p3232
sS'trm_4e31d5c79ddfe'
p3233
S'CAO_00699'
p3234
sS'trm_4a3fd79d0a1ae'
p3235
S'CAO_00280'
p3236
sS'cnt_4dfb9a75a2cff'
p3237
S'CAO_01502'
p3238
sS'cnt_4e025d8d96ecf'
p3239
S'CAO_01622'
p3240
sS'trm_4f24108555294'
p3241
S'CAO_01615'
p3242
sS'tsk_4a57abb949b0e'
p3243
S'CAO_00836'
p3244
sS'cnt_4de6d1194349d'
p3245
S'CAO_01313'
p3246
sS'cnt_4dff80aec63b6'
p3247
S'CAO_01524'
p3248
sS'cnt_4c9961cd8a778'
p3249
S'CAO_01246'
p3250
sS'cnt_4de6875390f37'
p3251
S'CAO_01285'
p3252
sS'cnt_4de584598a9c7'
p3253
S'CAO_01273'
p3254
sS'cnt_4dfbcad0d0f28'
p3255
S'CAO_01516'
p3256
sS'trm_4c40d10cd776e'
p3257
S'CAO_00723'
p3258
sS'trm_4a3fd79d09aa7'
p3259
S'CAO_00163'
p3260
sS'cnt_4df8e2760df07'
p3261
S'CAO_01446'
p3262
sS'trm_4da4b203ad5ae'
p3263
S'CAO_00901'
p3264
sS'cnt_4e0181c976a19'
p3265
S'CAO_01598'
p3266
sS'con_4df260fd66ed8'
p3267
S'CAO_01092'
p3268
sS'con_4ebd8ded947c1'
p3269
S'CAO_01784'
p3270
sS'con_4e664d8cc1085'
p3271
S'CAO_01709'
p3272
sS'trm_4a3fd79d0a1a2'
p3273
S'CAO_00279'
p3274
sS'con_4ebd524b68628'
p3275
S'CAO_01760'
p3276
sS'tsk_4a57abb949b00'
p3277
S'CAO_00835'
p3278
sS'cnt_4dee50d11696f'
p3279
S'CAO_01375'
p3280
sS'cnt_4e68e188bfadc'
p3281
S'CAO_01808'
p3282
sS'con_4ded127194dd6'
p3283
S'CAO_01082'
p3284
sS'cnt_4bd1ebdb08e17'
p3285
S'CAO_01235'
p3286
sS'trm_4a3fd79d0ba54'
p3287
S'CAO_00666'
p3288
sS'cnt_4dfa891db4cf7'
p3289
S'CAO_01493'
p3290
sS'trm_4a3fd79d09707'
p3291
S'CAO_00105'
p3292
sS'cnt_4dffb49d604fa'
p3293
S'CAO_01532'
p3294
sS'con_4ebd47de279d1'
p3295
S'CAO_01752'
p3296
sS'con_4de6a33431179'
p3297
S'CAO_01045'
p3298
sS'trm_4a3fd79d09daa'
p3299
S'CAO_00211'
p3300
sS'cnt_4df8e1f29b788'
p3301
S'CAO_01444'
p3302
sS'tsk_4a57abb949a93'
p3303
S'CAO_00827'
p3304
sS'trm_4d8a48e403c78'
p3305
S'CAO_00899'
p3306
sS'con_4e01263d51a65'
p3307
S'CAO_01142'
p3308
sS'trm_4a3fd79d09947'
p3309
S'CAO_00149'
p3310
sS'tsk_4a57abb949d40'
p3311
S'CAO_00855'
p3312
sS'con_4ebd4179ce36d'
p3313
S'CAO_01736'
p3314
sS'con_4edcf52c2e669'
p3315
S'CAO_01792'
p3316
sS'trm_4a3fd79d098b2'
p3317
S'CAO_00138'
p3318
sS'cnt_4b1969ec1404f'
p3319
S'CAO_01196'
p3320
sS'cnt_4e08fe37729fc'
p3321
S'CAO_01661'
p3322
sS'cnt_4de678e027440'
p3323
S'CAO_01284'
p3324
sS'trm_4a3fd79d0ae58'
p3325
S'CAO_00473'
p3326
sS'trm_4a3fd79d0b89e'
p3327
S'CAO_00629'
p3328
sS'trm_4a3fd79d0ac9e'
p3329
S'CAO_00451'
p3330
sS'cnt_4df66a33d6b43'
p3331
S'CAO_01425'
p3332
sS'trm_4a3fd79d098bd'
p3333
S'CAO_00139'
p3334
sS'trm_4da88cb222308'
p3335
S'CAO_00951'
p3336
sS'trm_4da6331cdeeb5'
p3337
S'CAO_00908'
p3338
sS'trm_4a3fd79d0aa5e'
p3339
S'CAO_00421'
p3340
sS'con_4cacee8ad3204'
p3341
S'CAO_01014'
p3342
sS'tsk_4a57abb949d4e'
p3343
S'CAO_00856'
p3344
sS'cnt_4de575b6944bf'
p3345
S'CAO_01267'
p3346
sS'con_4ebc64ff11a11'
p3347
S'CAO_01724'
p3348
sS'con_4e5e7b3e4b895'
p3349
S'CAO_01695'
p3350
sS'con_4b7c04350b339'
p3351
S'CAO_00994'
p3352
sS'con_4ded4b345f18a'
p3353
S'CAO_01086'
p3354
sS'trm_4a3fd79d0b238'
p3355
S'CAO_00536'
p3356
sS'trm_4a3fd79d0ac93'
p3357
S'CAO_00450'
p3358
sS'trm_4a3fd79d0b892'
p3359
S'CAO_00628'
p3360
sS'cnt_4e496d6e12225'
p3361
S'CAO_01670'
p3362
sS'trm_4f24479b0db8f'
p3363
S'CAO_01661'
p3364
sS'cnt_4e01278c5e632'
p3365
S'CAO_01584'
p3366
sS'con_4de6c5f53e3b1'
p3367
S'CAO_01054'
p3368
sS'tsk_4a57abb949e35'
p3369
S'CAO_00873'
p3370
sS'trm_4c8a85534241d'
p3371
S'CAO_00787'
p3372
sS'cnt_4df29e99a47ae'
p3373
S'CAO_01415'
p3374
sS'tsk_4a57abb949858'
p3375
S'CAO_00797'
p3376
sS'cnt_4de5759d116f4'
p3377
S'CAO_01266'
p3378
sS'trm_4aae62e4ad209'
p3379
S'CAO_00670'
p3380
sS'trm_4a3fd79d0a769'
p3381
S'CAO_00372'
p3382
sS'trm_4a3fd79d0b148'
p3383
S'CAO_00523'
p3384
sS'con_4e5fced0a43a0'
p3385
S'CAO_01702'
p3386
sS'trm_4a3fd79d0a613'
p3387
S'CAO_00347'
p3388
sS'trm_4e31d031bc8c2'
p3389
S'CAO_00967'
p3390
sS'trm_4a3fd79d0b8b5'
p3391
S'CAO_00631'
p3392
sS'cnt_4b7c10b1b1de1'
p3393
S'CAO_01228'
p3394
sS'con_4e495e56dd1bc'
p3395
S'CAO_01178'
p3396
sS'cnt_4dffd35b101cb'
p3397
S'CAO_01548'
p3398
sS'trm_4da880396c76b'
p3399
S'CAO_00932'
p3400
sS'trm_4a3fd79d0b701'
p3401
S'CAO_00613'
p3402
sS'cnt_4dffd181cb7da'
p3403
S'CAO_01542'
p3404
sS'cnt_4dff865de2859'
p3405
S'CAO_01526'
p3406
sS'cnt_4b4a2f2e27574'
p3407
S'CAO_01204'
p3408
sS'con_4e5bbda6f11ff'
p3409
S'CAO_01193'
p3410
sS'trm_4f2421c391b83'
p3411
S'CAO_01652'
p3412
sS'trm_4a3fd79d0b09a'
p3413
S'CAO_00509'
p3414
sS'con_4e011301aec43'
p3415
S'CAO_01135'
p3416
sS'con_4cacf4462f7cf'
p3417
S'CAO_01017'
p3418
sS'trm_4a3fd79d09a49'
p3419
S'CAO_00155'
p3420
sS'trm_4e5e7ac84c2e5'
p3421
S'CAO_01586'
p3422
sS'trm_4a3fd79d0afe6'
p3423
S'CAO_00496'
p3424
sS'trm_4a3fd79d0a61f'
p3425
S'CAO_00348'
p3426
sS'con_4dffd03801231'
p3427
S'CAO_01121'
p3428
sS'trm_4a3fd79d0a145'
p3429
S'CAO_00271'
p3430
sS'cnt_4e01268a18f79'
p3431
S'CAO_01579'
p3432
sS'trm_4f23fc8c42d28'
p3433
S'CAO_01606'
p3434
sS'con_4ebd5c919bc58'
p3435
S'CAO_01774'
p3436
sS'con_4de6a278a78fe'
p3437
S'CAO_01042'
p3438
sS'cnt_4e038b1c6fd1f'
p3439
S'CAO_01635'
p3440
sS'cnt_4de7c6ae5a2a1'
p3441
S'CAO_01322'
p3442
sS'trm_4a3fd79d09eb6'
p3443
S'CAO_00232'
p3444
sS'trm_4a3fd79d0b6dd'
p3445
S'CAO_00610'
p3446
sS'con_4e495e6ea76b0'
p3447
S'CAO_01179'
p3448
sS'con_4dfbb16a63016'
p3449
S'CAO_01115'
p3450
sS'cnt_4df7af3c32a49'
p3451
S'CAO_01442'
p3452
sS'tsk_4a57abb949dbb'
p3453
S'CAO_00864'
p3454
sS'cnt_4de6a2f38a5ed'
p3455
S'CAO_01290'
p3456
sS'trm_4a3fd79d0a38d'
p3457
S'CAO_00309'
p3458
sS'trm_4da87b8bf1511'
p3459
S'CAO_00924'
p3460
sS'con_4be6eb857e704'
p3461
S'CAO_01005'
p3462
sS'trm_4a3fd79d0b3d7'
p3463
S'CAO_00705'
p3464
sS'trm_4f244f46ebf58'
p3465
S'CAO_01677'
p3466
sS'cnt_4e68e1b3598ac'
p3467
S'CAO_01809'
p3468
sS'con_4de6d1650c54a'
p3469
S'CAO_01064'
p3470
sS'trm_4e5d07565b68e'
p3471
S'CAO_00972'
p3472
sS'trm_4a3fd79d0a54b'
p3473
S'CAO_00339'
p3474
sS'trm_4a3fd79d0a81b'
p3475
S'CAO_00385'
p3476
sS'con_4ebd59c1122ae'
p3477
S'CAO_01764'
p3478
sS'trm_4a3fd79d0b6d1'
p3479
S'CAO_00609'
p3480
sS'trm_4f24179122380'
p3481
S'CAO_01627'
p3482
sS'cnt_4e03b364135e2'
p3483
S'CAO_01643'
p3484
sS'cnt_4e0237ba58871'
p3485
S'CAO_01609'
p3486
sS'cnt_4caceed40b5b9'
p3487
S'CAO_01253'
p3488
sS'trm_4da633dbb5817'
p3489
S'CAO_00911'
p3490
sS'cnt_4df689fe846de'
p3491
S'CAO_01433'
p3492
sS'trm_4a3fd79d0b0df'
p3493
S'CAO_00515'
p3494
sS'con_4ebd52c09f52f'
p3495
S'CAO_01763'
p3496
sS'cnt_4de671d131ff9'
p3497
S'CAO_01276'
p3498
sS'cnt_4df66a407cc2e'
p3499
S'CAO_01426'
p3500
sS'cnt_4e023c2ae3c76'
p3501
S'CAO_01611'
p3502
sS'con_4bd1ebae43d9f'
p3503
S'CAO_01003'
p3504
sS'cnt_4e00ccaa100fd'
p3505
S'CAO_01555'
p3506
sS'cnt_4e0126dc131ec'
p3507
S'CAO_01581'
p3508
sS'con_4de583fcb050b'
p3509
S'CAO_01029'
p3510
sS'cnt_4e0133e4d4fe1'
p3511
S'CAO_01597'
p3512
sS'trm_4c8a83cac75f5'
p3513
S'CAO_00776'
p3514
sS'cnt_4de583fcb0789'
p3515
S'CAO_01272'
p3516
sS'con_4ebd8e0b9844c'
p3517
S'CAO_01785'
p3518
sS'con_4dffd2399e9c1'
p3519
S'CAO_01127'
p3520
sS'con_4b65e62c517d4'
p3521
S'CAO_00990'
p3522
sS'trm_4a3fd79d0b0d4'
p3523
S'CAO_00514'
p3524
sS'con_4b7c1033c0b2d'
p3525
S'CAO_00999'
p3526
sS'cnt_4dfa7d1ad09a6'
p3527
S'CAO_01489'
p3528
sS'trm_4d7fc7c13b3c0'
p3529
S'CAO_00689'
p3530
sS'con_4de6ad74bd5ee'
p3531
S'CAO_01046'
p3532
sS'trm_4a3fd79d0ad94'
p3533
S'CAO_00460'
p3534
sS'trm_4a3fd79d098eb'
p3535
S'CAO_00142'
p3536
sS'trm_4a3fd79d0aa2f'
p3537
S'CAO_00419'
p3538
sS'cnt_4e011a8762e55'
p3539
S'CAO_01570'
p3540
sS'trm_4e31e6dca01ca'
p3541
S'CAO_00700'
p3542
sS'cnt_4df10c8ee9834'
p3543
S'CAO_01384'
p3544
sS'tsk_4a57abb949b38'
p3545
S'CAO_00839'
p3546
sS'trm_4a3fd79d0995e'
p3547
S'CAO_00151'
p3548
sS'con_4ebc9926b5598'
p3549
S'CAO_01729'
p3550
sS'trm_4a3fd79d09d9e'
p3551
S'CAO_00210'
p3552
sS'trm_4a3fd79d0ba48'
p3553
S'CAO_00665'
p3554
sS'trm_4a3fd79d0b95b'
p3555
S'CAO_00645'
p3556
sS'trm_4a3fd79d09713'
p3557
S'CAO_00106'
p3558
sS'trm_4f2447dfa5947'
p3559
S'CAO_01662'
p3560
sS'con_4ebd45f01543f'
p3561
S'CAO_01747'
p3562
sS'tsk_4a57abb949c04'
p3563
S'CAO_00848'
p3564
sS'trm_4c8a8329cb8ff'
p3565
S'CAO_00773'
p3566
sS'con_4dfb9af0983f6'
p3567
S'CAO_01112'
p3568
sS'trm_4a3fd79d09953'
p3569
S'CAO_00150'
p3570
sS'con_4dfb9ab8d6e90'
p3571
S'CAO_01111'
p3572
sS'trm_4a3fd79d0ad9f'
p3573
S'CAO_00461'
p3574
sS'trm_4a3fd79d098e0'
p3575
S'CAO_00141'
p3576
sS'cnt_4de93e831c09d'
p3577
S'CAO_01346'
p3578
sS'trm_4a3fd79d0aa23'
p3579
S'CAO_00418'
p3580
sS'cnt_4df2609ceae39'
p3581
S'CAO_01399'
p3582
sS'trm_4c898a20eb254'
p3583
S'CAO_00730'
p3584
sS'tsk_4a57abb949d5b'
p3585
S'CAO_00857'
p3586
sS'cnt_4cacee7c21792'
p3587
S'CAO_01251'
p3588
sS'trm_4da869e68b5c4'
p3589
S'CAO_00915'
p3590
sS'trm_4a3fd79d0971e'
p3591
S'CAO_00107'
p3592
sS'cnt_4b196a25d1671'
p3593
S'CAO_01199'
p3594
sS'trm_4a3fd79d09d93'
p3595
S'CAO_00209'
p3596
sS'tsk_4a57abb949ce9'
p3597
S'CAO_00849'
p3598
sS'trm_4a3fd79d0b392'
p3599
S'CAO_00556'
p3600
sS'cnt_4c6b5fd5bfc41'
p3601
S'CAO_01244'
p3602
sS'trm_4a3fd79d0adf4'
p3603
S'CAO_00468'
p3604
sS'con_4bd1ebdb08118'
p3605
S'CAO_01004'
p3606
sS'cnt_4e026543eae67'
p3607
S'CAO_01625'
p3608
sS'trm_4da86c2a70a7d'
p3609
S'CAO_00918'
p3610
sS'cnt_4b7c041db99fb'
p3611
S'CAO_01220'
p3612
sS'trm_4a3fd79d0b55f'
p3613
S'CAO_00581'
p3614
sS'con_4e011aded69ae'
p3615
S'CAO_01137'
p3616
sS'tsk_4a57abb949e44'
p3617
S'CAO_00874'
p3618
sS'cnt_4de929a613652'
p3619
S'CAO_01339'
p3620
sS'trm_4a3fd79d0b8cd'
p3621
S'CAO_00633'
p3622
sS'trm_4a3fd79d0a97e'
p3623
S'CAO_00406'
p3624
sS'cnt_4e0129bf96513'
p3625
S'CAO_01587'
p3626
sS'trm_4c40d325977f0'
p3627
S'CAO_00727'
p3628
sS'trm_4a3fd79d0b39d'
p3629
S'CAO_00557'
p3630
sS'trm_4d949c5b0e380'
p3631
S'CAO_00900'
p3632
sS'trm_4da88bff0507c'
p3633
S'CAO_00947'
p3634
sS'tsk_4a57abb949846'
p3635
S'CAO_00796'
p3636
sS'cnt_4b1969ffa81fe'
p3637
S'CAO_01197'
p3638
sS'cnt_4df6a77053b3f'
p3639
S'CAO_01441'
p3640
sS'trm_4a3fd79d0b554'
p3641
S'CAO_00580'
p3642
sS'trm_4a3fd79d0a972'
p3643
S'CAO_00405'
p3644
sS'trm_4a3fd79d0b8c1'
p3645
S'CAO_00632'
p3646
sS'cnt_4de6716415d2d'
p3647
S'CAO_01274'
p3648
sS'con_4c6b600d4a2c2'
p3649
S'CAO_01010'
p3650
sS'cnt_4df10f9cbd86c'
p3651
S'CAO_01386'
p3652
s.